ccopy_reg
_reconstructor
p0
(cjazzr.rhythm.symbol
Symbol
p1
c__builtin__
object
p2
Ntp3
Rp4
(dp5
S'length'
p6
F128.0
sS'depth'
p7
I8
sS'type'
p8
I2
sS'children'
p9
(lp10
g0
(g1
g2
Ntp11
Rp12
(dp13
g6
F64.0
sg7
I7
sg8
I2
sg9
(lp14
g0
(g1
g2
Ntp15
Rp16
(dp17
g6
F32.0
sg7
I6
sg8
I2
sg9
(lp18
g0
(g1
g2
Ntp19
Rp20
(dp21
g6
F16.0
sg7
I5
sg8
I2
sg9
(lp22
g0
(g1
g2
Ntp23
Rp24
(dp25
g6
F8.0
sg7
I4
sg8
I2
sg9
(lp26
g0
(g1
g2
Ntp27
Rp28
(dp29
g6
F4.0
sg7
I3
sg8
I2
sg9
(lp30
g0
(g1
g2
Ntp31
Rp32
(dp33
g6
F2.0
sg7
I2
sg8
I2
sg9
(lp34
g0
(g1
g2
Ntp35
Rp36
(dp37
g6
F1.0
sg7
I1
sg8
I2
sg9
(lp38
g0
(cjazzr.rhythm.symbol
Onset
p39
g2
Ntp40
Rp41
(dp42
S'on'
p43
F0.0
sS'features'
p44
(lp45
sg9
Nsg6
NsS'next'
p46
F0.5
sg7
I0
sg8
I0
sS'annotation'
p47
I0
sS'previous'
p48
I0
sbag0
(g39
g2
Ntp49
Rp50
(dp51
g43
F0.5
sg44
(lp52
sg9
Nsg6
Nsg46
F1.0
sg7
I0
sg8
I0
sg47
I1
sg48
F0.0
sbasg44
(F0.0
(I0
F0.0
F1.0
tp53
F1.0
tp54
sbag0
(g1
g2
Ntp55
Rp56
(dp57
g6
F1.0
sg7
I1
sg8
I2
sg9
(lp58
g0
(g39
g2
Ntp59
Rp60
(dp61
g43
F1.0
sg44
(lp62
sg9
Nsg6
Nsg46
F1.5
sg7
I0
sg8
I0
sg47
I2
sg48
F0.5
sbag0
(g39
g2
Ntp63
Rp64
(dp65
g43
F1.5
sg44
(lp66
sg9
Nsg6
Nsg46
F4.0
sg7
I0
sg8
I0
sg47
I3
sg48
F1.0
sbasg44
(F0.0
(F0.5
F1.0
F4.0
tp67
F1.0
tp68
sbasg44
(F0.0
(I0
F0.0
F4.0
tp69
F1.0
tp70
sbag0
(cjazzr.rhythm.symbol
Tie
p71
g2
Ntp72
Rp73
(dp74
g6
Nsg7
I0
sg8
I1
sg9
Nsg44
(lp75
sbasg44
(F0.0
(I0
F0.0
F4.0
tp76
F1.0
tp77
sbag0
(g1
g2
Ntp78
Rp79
(dp80
g6
F4.0
sg7
I3
sg8
I2
sg9
(lp81
g0
(g1
g2
Ntp82
Rp83
(dp84
g6
F2.0
sg7
I2
sg8
I2
sg9
(lp85
g0
(g1
g2
Ntp86
Rp87
(dp88
g6
F1.0
sg7
I1
sg8
I2
sg9
(lp89
g0
(g39
g2
Ntp90
Rp91
(dp92
g43
F4.0
sg44
(lp93
sg9
Nsg6
Nsg46
F4.5
sg7
I0
sg8
I0
sg47
I4
sg48
F1.5
sbag0
(g39
g2
Ntp94
Rp95
(dp96
g43
F4.5
sg44
(lp97
sg9
Nsg6
Nsg46
F5.0
sg7
I0
sg8
I0
sg47
I5
sg48
F4.0
sbasg44
(F0.0
(F1.5
F4.0
F5.0
tp98
F1.0
tp99
sbag0
(g1
g2
Ntp100
Rp101
(dp102
g6
F1.0
sg7
I1
sg8
I2
sg9
(lp103
g0
(g39
g2
Ntp104
Rp105
(dp106
g43
F5.0
sg44
(lp107
sg9
Nsg6
Nsg46
F5.5
sg7
I0
sg8
I0
sg47
I6
sg48
F4.5
sbag0
(g39
g2
Ntp108
Rp109
(dp110
g43
F5.5
sg44
(lp111
sg9
Nsg6
Nsg46
F8.0
sg7
I0
sg8
I0
sg47
I7
sg48
F5.0
sbasg44
(F0.0
(F4.5
F5.0
F8.0
tp112
F1.0
tp113
sbasg44
(F0.0
(F1.5
F4.0
F8.0
tp114
F1.0
tp115
sbag0
(g71
g2
Ntp116
Rp117
(dp118
g6
Nsg7
I0
sg8
I1
sg9
Nsg44
(lp119
sbasg44
(F0.0
(F1.5
F4.0
F8.0
tp120
F1.0
tp121
sbasg44
(F0.0
(I0
F0.0
F8.0
tp122
F1.0
tp123
sbag0
(g1
g2
Ntp124
Rp125
(dp126
g6
F8.0
sg7
I4
sg8
I2
sg9
(lp127
g0
(g1
g2
Ntp128
Rp129
(dp130
g6
F4.0
sg7
I3
sg8
I2
sg9
(lp131
g0
(g1
g2
Ntp132
Rp133
(dp134
g6
F2.0
sg7
I2
sg8
I2
sg9
(lp135
g0
(g1
g2
Ntp136
Rp137
(dp138
g6
F1.0
sg7
I1
sg8
I2
sg9
(lp139
g0
(g39
g2
Ntp140
Rp141
(dp142
g43
F8.0
sg44
(lp143
sg9
Nsg6
Nsg46
F8.5
sg7
I0
sg8
I0
sg47
I8
sg48
F5.5
sbag0
(g39
g2
Ntp144
Rp145
(dp146
g43
F8.5
sg44
(lp147
sg9
Nsg6
Nsg46
F9.0
sg7
I0
sg8
I0
sg47
I9
sg48
F8.0
sbasg44
(F0.0
(F5.5
F8.0
F9.0
tp148
F1.0
tp149
sbag0
(g1
g2
Ntp150
Rp151
(dp152
g6
F1.0
sg7
I1
sg8
I2
sg9
(lp153
g0
(g39
g2
Ntp154
Rp155
(dp156
g43
F9.0
sg44
(lp157
sg9
Nsg6
Nsg46
F9.5
sg7
I0
sg8
I0
sg47
I10
sg48
F8.5
sbag0
(g39
g2
Ntp158
Rp159
(dp160
g43
F9.5
sg44
(lp161
sg9
Nsg6
Nsg46
F10.0
sg7
I0
sg8
I0
sg47
I11
sg48
F9.0
sbasg44
(F0.0
(F8.5
F9.0
F10.0
tp162
F1.0
tp163
sbasg44
(F0.0
(F5.5
F8.0
F10.0
tp164
F1.0
tp165
sbag0
(g1
g2
Ntp166
Rp167
(dp168
g6
F2.0
sg7
I2
sg8
I2
sg9
(lp169
g0
(g1
g2
Ntp170
Rp171
(dp172
g6
F1.0
sg7
I1
sg8
I2
sg9
(lp173
g0
(g39
g2
Ntp174
Rp175
(dp176
g43
F10.0
sg44
(lp177
sg9
Nsg6
Nsg46
F10.5
sg7
I0
sg8
I0
sg47
I12
sg48
F9.5
sbag0
(g39
g2
Ntp178
Rp179
(dp180
g43
F10.5
sg44
(lp181
sg9
Nsg6
Nsg46
F11.0
sg7
I0
sg8
I0
sg47
I13
sg48
F10.0
sbasg44
(F0.0
(F9.5
F10.0
F11.0
tp182
F1.0
tp183
sbag0
(g1
g2
Ntp184
Rp185
(dp186
g6
F1.0
sg7
I1
sg8
I2
sg9
(lp187
g0
(g39
g2
Ntp188
Rp189
(dp190
g43
F11.0
sg44
(lp191
sg9
Nsg6
Nsg46
F11.5
sg7
I0
sg8
I0
sg47
I14
sg48
F10.5
sbag0
(g39
g2
Ntp192
Rp193
(dp194
g43
F11.5
sg44
(lp195
sg9
Nsg6
Nsg46
F12.5
sg7
I0
sg8
I0
sg47
I15
sg48
F11.0
sbasg44
(F0.0
(F10.5
F11.0
F12.5
tp196
F1.0
tp197
sbasg44
(F0.0
(F9.5
F10.0
F12.5
tp198
F1.0
tp199
sbasg44
(F0.0
(F5.5
F8.0
F12.5
tp200
F1.0
tp201
sbag0
(g1
g2
Ntp202
Rp203
(dp204
g6
F4.0
sg7
I3
sg8
I2
sg9
(lp205
g0
(g1
g2
Ntp206
Rp207
(dp208
g6
F2.0
sg7
I2
sg8
I2
sg9
(lp209
g0
(g1
g2
Ntp210
Rp211
(dp212
g6
Nsg7
I1
sg8
I2
sg9
(lp213
g0
(g71
g2
Ntp214
Rp215
(dp216
g6
Nsg7
I0
sg8
I1
sg9
Nsg44
(lp217
sbag0
(g39
g2
Ntp218
Rp219
(dp220
g43
F12.5
sg44
(lp221
sg9
Nsg6
Nsg46
F13.0
sg7
I0
sg8
I0
sg47
I16
sg48
F11.5
sbasg44
(F0.5
(F11.5
F12.5
F13.0
tp222
F0.5
tp223
sbag0
(g39
g2
Ntp224
Rp225
(dp226
g43
F13.0
sg44
(lp227
sg9
Nsg6
Nsg46
F16.0
sg7
I0
sg8
I0
sg47
I17
sg48
F12.5
sbasg44
(F0.25
(F11.5
F12.5
F16.0
tp228
F0.75
tp229
sbag0
(g71
g2
Ntp230
Rp231
(dp232
g6
Nsg7
I0
sg8
I1
sg9
Nsg44
(lp233
sbasg44
(F0.125
(F11.5
F12.5
F16.0
tp234
F0.875
tp235
sbasg44
(F0.0
(F5.5
F8.0
F16.0
tp236
F1.0
tp237
sbasg44
(F0.0
(I0
F0.0
F16.0
tp238
F1.0
tp239
sbag0
(g1
g2
Ntp240
Rp241
(dp242
g6
F16.0
sg7
I5
sg8
I2
sg9
(lp243
g0
(g1
g2
Ntp244
Rp245
(dp246
g6
F8.0
sg7
I4
sg8
I2
sg9
(lp247
g0
(g1
g2
Ntp248
Rp249
(dp250
g6
F4.0
sg7
I3
sg8
I2
sg9
(lp251
g0
(g1
g2
Ntp252
Rp253
(dp254
g6
F2.0
sg7
I2
sg8
I2
sg9
(lp255
g0
(g1
g2
Ntp256
Rp257
(dp258
g6
F1.0
sg7
I1
sg8
I2
sg9
(lp259
g0
(g39
g2
Ntp260
Rp261
(dp262
g43
F16.0
sg44
(lp263
sg9
Nsg6
Nsg46
F16.5
sg7
I0
sg8
I0
sg47
I18
sg48
F13.0
sbag0
(g39
g2
Ntp264
Rp265
(dp266
g43
F16.5
sg44
(lp267
sg9
Nsg6
Nsg46
F17.0
sg7
I0
sg8
I0
sg47
I19
sg48
F16.0
sbasg44
(F0.0
(F13.0
F16.0
F17.0
tp268
F1.0
tp269
sbag0
(g1
g2
Ntp270
Rp271
(dp272
g6
F1.0
sg7
I1
sg8
I2
sg9
(lp273
g0
(g39
g2
Ntp274
Rp275
(dp276
g43
F17.0
sg44
(lp277
sg9
Nsg6
Nsg46
F17.5
sg7
I0
sg8
I0
sg47
I20
sg48
F16.5
sbag0
(g39
g2
Ntp278
Rp279
(dp280
g43
F17.5
sg44
(lp281
sg9
Nsg6
Nsg46
F20.0
sg7
I0
sg8
I0
sg47
I21
sg48
F17.0
sbasg44
(F0.0
(F16.5
F17.0
F20.0
tp282
F1.0
tp283
sbasg44
(F0.0
(F13.0
F16.0
F20.0
tp284
F1.0
tp285
sbag0
(g71
g2
Ntp286
Rp287
(dp288
g6
Nsg7
I0
sg8
I1
sg9
Nsg44
(lp289
sbasg44
(F0.0
(F13.0
F16.0
F20.0
tp290
F1.0
tp291
sbag0
(g1
g2
Ntp292
Rp293
(dp294
g6
F4.0
sg7
I3
sg8
I2
sg9
(lp295
g0
(g1
g2
Ntp296
Rp297
(dp298
g6
F2.0
sg7
I2
sg8
I2
sg9
(lp299
g0
(g1
g2
Ntp300
Rp301
(dp302
g6
F1.0
sg7
I1
sg8
I2
sg9
(lp303
g0
(g39
g2
Ntp304
Rp305
(dp306
g43
F20.0
sg44
(lp307
sg9
Nsg6
Nsg46
F20.5
sg7
I0
sg8
I0
sg47
I22
sg48
F17.5
sbag0
(g39
g2
Ntp308
Rp309
(dp310
g43
F20.5
sg44
(lp311
sg9
Nsg6
Nsg46
F21.0
sg7
I0
sg8
I0
sg47
I23
sg48
F20.0
sbasg44
(F0.0
(F17.5
F20.0
F21.0
tp312
F1.0
tp313
sbag0
(g1
g2
Ntp314
Rp315
(dp316
g6
F1.0
sg7
I1
sg8
I2
sg9
(lp317
g0
(g39
g2
Ntp318
Rp319
(dp320
g43
F21.0
sg44
(lp321
sg9
Nsg6
Nsg46
F21.5
sg7
I0
sg8
I0
sg47
I24
sg48
F20.5
sbag0
(g39
g2
Ntp322
Rp323
(dp324
g43
F21.5
sg44
(lp325
sg9
Nsg6
Nsg46
F24.0
sg7
I0
sg8
I0
sg47
I25
sg48
F21.0
sbasg44
(F0.0
(F20.5
F21.0
F24.0
tp326
F1.0
tp327
sbasg44
(F0.0
(F17.5
F20.0
F24.0
tp328
F1.0
tp329
sbag0
(g71
g2
Ntp330
Rp331
(dp332
g6
Nsg7
I0
sg8
I1
sg9
Nsg44
(lp333
sbasg44
(F0.0
(F17.5
F20.0
F24.0
tp334
F1.0
tp335
sbasg44
(F0.0
(F13.0
F16.0
F24.0
tp336
F1.0
tp337
sbag0
(g1
g2
Ntp338
Rp339
(dp340
g6
F8.0
sg7
I4
sg8
I2
sg9
(lp341
g0
(g1
g2
Ntp342
Rp343
(dp344
g6
F4.0
sg7
I3
sg8
I2
sg9
(lp345
g0
(g1
g2
Ntp346
Rp347
(dp348
g6
F2.0
sg7
I2
sg8
I2
sg9
(lp349
g0
(g1
g2
Ntp350
Rp351
(dp352
g6
F1.0
sg7
I1
sg8
I2
sg9
(lp353
g0
(g39
g2
Ntp354
Rp355
(dp356
g43
F24.0
sg44
(lp357
sg9
Nsg6
Nsg46
F24.5
sg7
I0
sg8
I0
sg47
I26
sg48
F21.5
sbag0
(g39
g2
Ntp358
Rp359
(dp360
g43
F24.5
sg44
(lp361
sg9
Nsg6
Nsg46
F25.0
sg7
I0
sg8
I0
sg47
I27
sg48
F24.0
sbasg44
(F0.0
(F21.5
F24.0
F25.0
tp362
F1.0
tp363
sbag0
(g1
g2
Ntp364
Rp365
(dp366
g6
F1.0
sg7
I1
sg8
I2
sg9
(lp367
g0
(g39
g2
Ntp368
Rp369
(dp370
g43
F25.0
sg44
(lp371
sg9
Nsg6
Nsg46
F25.5
sg7
I0
sg8
I0
sg47
I28
sg48
F24.5
sbag0
(g39
g2
Ntp372
Rp373
(dp374
g43
F25.5
sg44
(lp375
sg9
Nsg6
Nsg46
F26.0
sg7
I0
sg8
I0
sg47
I29
sg48
F25.0
sbasg44
(F0.0
(F24.5
F25.0
F26.0
tp376
F1.0
tp377
sbasg44
(F0.0
(F21.5
F24.0
F26.0
tp378
F1.0
tp379
sbag0
(g1
g2
Ntp380
Rp381
(dp382
g6
F2.0
sg7
I2
sg8
I2
sg9
(lp383
g0
(g1
g2
Ntp384
Rp385
(dp386
g6
F1.0
sg7
I1
sg8
I2
sg9
(lp387
g0
(g39
g2
Ntp388
Rp389
(dp390
g43
F26.0
sg44
(lp391
sg9
Nsg6
Nsg46
F26.5
sg7
I0
sg8
I0
sg47
I30
sg48
F25.5
sbag0
(g39
g2
Ntp392
Rp393
(dp394
g43
F26.5
sg44
(lp395
sg9
Nsg6
Nsg46
F27.0
sg7
I0
sg8
I0
sg47
I31
sg48
F26.0
sbasg44
(F0.0
(F25.5
F26.0
F27.0
tp396
F1.0
tp397
sbag0
(g1
g2
Ntp398
Rp399
(dp400
g6
F1.0
sg7
I1
sg8
I2
sg9
(lp401
g0
(g39
g2
Ntp402
Rp403
(dp404
g43
F27.0
sg44
(lp405
sg9
Nsg6
Nsg46
F27.5
sg7
I0
sg8
I0
sg47
I32
sg48
F26.5
sbag0
(g39
g2
Ntp406
Rp407
(dp408
g43
F27.5
sg44
(lp409
sg9
Nsg6
Nsg46
F31.0
sg7
I0
sg8
I0
sg47
I33
sg48
F27.0
sbasg44
(F0.0
(F26.5
F27.0
F31.0
tp410
F1.0
tp411
sbasg44
(F0.0
(F25.5
F26.0
F31.0
tp412
F1.0
tp413
sbasg44
(F0.0
(F21.5
F24.0
F31.0
tp414
F1.0
tp415
sbag0
(g1
g2
Ntp416
Rp417
(dp418
g6
F4.000000000000007
sg7
I3
sg8
I2
sg9
(lp419
g0
(g71
g2
Ntp420
Rp421
(dp422
g6
Nsg7
I0
sg8
I1
sg9
Nsg44
(lp423
sbag0
(g1
g2
Ntp424
Rp425
(dp426
g6
F2.0000000000000036
sg7
I2
sg8
I2
sg9
(lp427
g0
(g71
g2
Ntp428
Rp429
(dp430
g6
Nsg7
I0
sg8
I1
sg9
Nsg44
(lp431
sbag0
(g1
g2
Ntp432
Rp433
(dp434
g6
F1.0000000000000018
sg7
I1
sg8
I2
sg9
(lp435
g0
(g39
g2
Ntp436
Rp437
(dp438
g43
F31.0
sg44
(lp439
sg9
Nsg6
Nsg46
F31.333333333333332
sg7
I0
sg8
I0
sg47
I34
sg48
F27.5
sbag0
(g39
g2
Ntp440
Rp441
(dp442
g43
F31.333333333333332
sg44
(lp443
sg9
Nsg6
Nsg46
F31.666666666666668
sg7
I0
sg8
I0
sg47
I35
sg48
F31.0
sbag0
(g39
g2
Ntp444
Rp445
(dp446
g43
F31.666666666666668
sg44
(lp447
sg9
Nsg6
Nsg46
F32.0
sg7
I0
sg8
I0
sg47
I36
sg48
F31.333333333333332
sbasg44
(F0.0
(F27.5
F31.0
F32.0
tp448
F1.0
tp449
sbasg44
(F0.5
(F27.5
F31.0
F32.0
tp450
F0.5
tp451
sbasg44
(F0.75
(F27.5
F31.0
F32.0
tp452
F0.25
tp453
sbasg44
(F0.0
(F21.5
F24.0
F32.0
tp454
F1.0
tp455
sbasg44
(F0.0
(F13.0
F16.0
F32.0
tp456
F1.0
tp457
sbasg44
(F0.0
(I0
F0.0
F32.0
tp458
F1.0
tp459
sbag0
(g1
g2
Ntp460
Rp461
(dp462
g6
F32.0
sg7
I6
sg8
I2
sg9
(lp463
g0
(g1
g2
Ntp464
Rp465
(dp466
g6
F16.0
sg7
I5
sg8
I2
sg9
(lp467
g0
(g1
g2
Ntp468
Rp469
(dp470
g6
F8.0
sg7
I4
sg8
I2
sg9
(lp471
g0
(g1
g2
Ntp472
Rp473
(dp474
g6
F4.0
sg7
I3
sg8
I2
sg9
(lp475
g0
(g1
g2
Ntp476
Rp477
(dp478
g6
F2.0
sg7
I2
sg8
I2
sg9
(lp479
g0
(g1
g2
Ntp480
Rp481
(dp482
g6
F1.0
sg7
I1
sg8
I2
sg9
(lp483
g0
(g39
g2
Ntp484
Rp485
(dp486
g43
F32.0
sg44
(lp487
sg9
Nsg6
Nsg46
F32.5
sg7
I0
sg8
I0
sg47
I38
sg48
F31.666666666666668
sbag0
(g39
g2
Ntp488
Rp489
(dp490
g43
F32.5
sg44
(lp491
sg9
Nsg6
Nsg46
F36.0
sg7
I0
sg8
I0
sg47
I40
sg48
F32.0
sbasg44
(F0.0
(F31.666666666666668
F32.0
F36.0
tp492
F1.0
tp493
sbag0
(g71
g2
Ntp494
Rp495
(dp496
g6
Nsg7
I0
sg8
I1
sg9
Nsg44
(lp497
sbasg44
(F0.0
(F31.666666666666668
F32.0
F36.0
tp498
F1.0
tp499
sbag0
(g71
g2
Ntp500
Rp501
(dp502
g6
Nsg7
I0
sg8
I1
sg9
Nsg44
(lp503
sbasg44
(F0.0
(F31.666666666666668
F32.0
F36.0
tp504
F1.0
tp505
sbag0
(g1
g2
Ntp506
Rp507
(dp508
g6
F4.0
sg7
I3
sg8
I2
sg9
(lp509
g0
(g1
g2
Ntp510
Rp511
(dp512
g6
F2.0
sg7
I2
sg8
I2
sg9
(lp513
g0
(g1
g2
Ntp514
Rp515
(dp516
g6
F1.0
sg7
I1
sg8
I2
sg9
(lp517
g0
(g39
g2
Ntp518
Rp519
(dp520
g43
F36.0
sg44
(lp521
sg9
Nsg6
Nsg46
F36.5
sg7
I0
sg8
I0
sg47
I41
sg48
F32.5
sbag0
(g39
g2
Ntp522
Rp523
(dp524
g43
F36.5
sg44
(lp525
sg9
Nsg6
Nsg46
F37.0
sg7
I0
sg8
I0
sg47
I42
sg48
F36.0
sbasg44
(F0.0
(F32.5
F36.0
F37.0
tp526
F1.0
tp527
sbag0
(g1
g2
Ntp528
Rp529
(dp530
g6
F1.0
sg7
I1
sg8
I2
sg9
(lp531
g0
(g39
g2
Ntp532
Rp533
(dp534
g43
F37.0
sg44
(lp535
sg9
Nsg6
Nsg46
F37.5
sg7
I0
sg8
I0
sg47
I43
sg48
F36.5
sbag0
(g39
g2
Ntp536
Rp537
(dp538
g43
F37.5
sg44
(lp539
sg9
Nsg6
Nsg46
F38.0
sg7
I0
sg8
I0
sg47
I44
sg48
F37.0
sbasg44
(F0.0
(F36.5
F37.0
F38.0
tp540
F1.0
tp541
sbasg44
(F0.0
(F32.5
F36.0
F38.0
tp542
F1.0
tp543
sbag0
(g1
g2
Ntp544
Rp545
(dp546
g6
F2.0
sg7
I2
sg8
I2
sg9
(lp547
g0
(g1
g2
Ntp548
Rp549
(dp550
g6
F1.0
sg7
I1
sg8
I2
sg9
(lp551
g0
(g39
g2
Ntp552
Rp553
(dp554
g43
F38.0
sg44
(lp555
sg9
Nsg6
Nsg46
F38.5
sg7
I0
sg8
I0
sg47
I45
sg48
F37.5
sbag0
(g39
g2
Ntp556
Rp557
(dp558
g43
F38.5
sg44
(lp559
sg9
Nsg6
Nsg46
F39.0
sg7
I0
sg8
I0
sg47
I46
sg48
F38.0
sbasg44
(F0.0
(F37.5
F38.0
F39.0
tp560
F1.0
tp561
sbag0
(g1
g2
Ntp562
Rp563
(dp564
g6
F1.0
sg7
I1
sg8
I2
sg9
(lp565
g0
(g39
g2
Ntp566
Rp567
(dp568
g43
F39.0
sg44
(lp569
sg9
Nsg6
Nsg46
F39.5
sg7
I0
sg8
I0
sg47
I47
sg48
F38.5
sbag0
(g39
g2
Ntp570
Rp571
(dp572
g43
F39.5
sg44
(lp573
sg9
Nsg6
Nsg46
F41.0
sg7
I0
sg8
I0
sg47
I48
sg48
F39.0
sbasg44
(F0.0
(F38.5
F39.0
F41.0
tp574
F1.0
tp575
sbasg44
(F0.0
(F37.5
F38.0
F41.0
tp576
F1.0
tp577
sbasg44
(F0.0
(F32.5
F36.0
F41.0
tp578
F1.0
tp579
sbasg44
(F0.0
(F31.666666666666668
F32.0
F41.0
tp580
F1.0
tp581
sbag0
(g1
g2
Ntp582
Rp583
(dp584
g6
F8.0
sg7
I4
sg8
I2
sg9
(lp585
g0
(g1
g2
Ntp586
Rp587
(dp588
g6
F4.0
sg7
I3
sg8
I2
sg9
(lp589
g0
(g1
g2
Ntp590
Rp591
(dp592
g6
F2.0
sg7
I2
sg8
I2
sg9
(lp593
g0
(g71
g2
Ntp594
Rp595
(dp596
g6
Nsg7
I0
sg8
I1
sg9
Nsg44
(lp597
sbag0
(g1
g2
Ntp598
Rp599
(dp600
g6
F1.0
sg7
I1
sg8
I2
sg9
(lp601
g0
(g39
g2
Ntp602
Rp603
(dp604
g43
F41.0
sg44
(lp605
sg9
Nsg6
Nsg46
F41.5
sg7
I0
sg8
I0
sg47
I49
sg48
F39.5
sbag0
(g39
g2
Ntp606
Rp607
(dp608
g43
F41.5
sg44
(lp609
sg9
Nsg6
Nsg46
F42.0
sg7
I0
sg8
I0
sg47
I50
sg48
F41.0
sbasg44
(F0.0
(F39.5
F41.0
F42.0
tp610
F1.0
tp611
sbasg44
(F0.5
(F39.5
F41.0
F42.0
tp612
F0.5
tp613
sbag0
(g1
g2
Ntp614
Rp615
(dp616
g6
F2.0
sg7
I2
sg8
I2
sg9
(lp617
g0
(g1
g2
Ntp618
Rp619
(dp620
g6
F1.0
sg7
I1
sg8
I2
sg9
(lp621
g0
(g39
g2
Ntp622
Rp623
(dp624
g43
F42.0
sg44
(lp625
sg9
Nsg6
Nsg46
F42.5
sg7
I0
sg8
I0
sg47
I51
sg48
F41.5
sbag0
(g39
g2
Ntp626
Rp627
(dp628
g43
F42.5
sg44
(lp629
sg9
Nsg6
Nsg46
F43.0
sg7
I0
sg8
I0
sg47
I52
sg48
F42.0
sbasg44
(F0.0
(F41.5
F42.0
F43.0
tp630
F1.0
tp631
sbag0
(g1
g2
Ntp632
Rp633
(dp634
g6
F1.0
sg7
I1
sg8
I2
sg9
(lp635
g0
(g39
g2
Ntp636
Rp637
(dp638
g43
F43.0
sg44
(lp639
sg9
Nsg6
Nsg46
F43.5
sg7
I0
sg8
I0
sg47
I53
sg48
F42.5
sbag0
(g39
g2
Ntp640
Rp641
(dp642
g43
F43.5
sg44
(lp643
sg9
Nsg6
Nsg46
F44.0
sg7
I0
sg8
I0
sg47
I54
sg48
F43.0
sbasg44
(F0.0
(F42.5
F43.0
F44.0
tp644
F1.0
tp645
sbasg44
(F0.0
(F41.5
F42.0
F44.0
tp646
F1.0
tp647
sbasg44
(F0.25
(F39.5
F41.0
F44.0
tp648
F0.75
tp649
sbag0
(g1
g2
Ntp650
Rp651
(dp652
g6
F4.0
sg7
I3
sg8
I2
sg9
(lp653
g0
(g1
g2
Ntp654
Rp655
(dp656
g6
F2.0
sg7
I2
sg8
I2
sg9
(lp657
g0
(g1
g2
Ntp658
Rp659
(dp660
g6
F1.0
sg7
I1
sg8
I2
sg9
(lp661
g0
(g39
g2
Ntp662
Rp663
(dp664
g43
F44.0
sg44
(lp665
sg9
Nsg6
Nsg46
F44.5
sg7
I0
sg8
I0
sg47
I55
sg48
F43.5
sbag0
(g39
g2
Ntp666
Rp667
(dp668
g43
F44.5
sg44
(lp669
sg9
Nsg6
Nsg46
F48.0
sg7
I0
sg8
I0
sg47
I56
sg48
F44.0
sbasg44
(F0.0
(F43.5
F44.0
F48.0
tp670
F1.0
tp671
sbag0
(g71
g2
Ntp672
Rp673
(dp674
g6
Nsg7
I0
sg8
I1
sg9
Nsg44
(lp675
sbasg44
(F0.0
(F43.5
F44.0
F48.0
tp676
F1.0
tp677
sbag0
(g71
g2
Ntp678
Rp679
(dp680
g6
Nsg7
I0
sg8
I1
sg9
Nsg44
(lp681
sbasg44
(F0.0
(F43.5
F44.0
F48.0
tp682
F1.0
tp683
sbasg44
(F0.125
(F39.5
F41.0
F48.0
tp684
F0.875
tp685
sbasg44
(F0.0
(F31.666666666666668
F32.0
F48.0
tp686
F1.0
tp687
sbag0
(g1
g2
Ntp688
Rp689
(dp690
g6
F16.0
sg7
I5
sg8
I2
sg9
(lp691
g0
(g1
g2
Ntp692
Rp693
(dp694
g6
F8.0
sg7
I4
sg8
I2
sg9
(lp695
g0
(g1
g2
Ntp696
Rp697
(dp698
g6
F4.0
sg7
I3
sg8
I2
sg9
(lp699
g0
(g1
g2
Ntp700
Rp701
(dp702
g6
F2.0
sg7
I2
sg8
I2
sg9
(lp703
g0
(g1
g2
Ntp704
Rp705
(dp706
g6
F1.0
sg7
I1
sg8
I2
sg9
(lp707
g0
(g39
g2
Ntp708
Rp709
(dp710
g43
F48.0
sg44
(lp711
sg9
Nsg6
Nsg46
F48.5
sg7
I0
sg8
I0
sg47
I57
sg48
F44.5
sbag0
(g39
g2
Ntp712
Rp713
(dp714
g43
F48.5
sg44
(lp715
sg9
Nsg6
Nsg46
F49.0
sg7
I0
sg8
I0
sg47
I58
sg48
F48.0
sbasg44
(F0.0
(F44.5
F48.0
F49.0
tp716
F1.0
tp717
sbag0
(g1
g2
Ntp718
Rp719
(dp720
g6
F1.0
sg7
I1
sg8
I2
sg9
(lp721
g0
(g39
g2
Ntp722
Rp723
(dp724
g43
F49.0
sg44
(lp725
sg9
Nsg6
Nsg46
F49.5
sg7
I0
sg8
I0
sg47
I59
sg48
F48.5
sbag0
(g39
g2
Ntp726
Rp727
(dp728
g43
F49.5
sg44
(lp729
sg9
Nsg6
Nsg46
F52.0
sg7
I0
sg8
I0
sg47
I60
sg48
F49.0
sbasg44
(F0.0
(F48.5
F49.0
F52.0
tp730
F1.0
tp731
sbasg44
(F0.0
(F44.5
F48.0
F52.0
tp732
F1.0
tp733
sbag0
(g71
g2
Ntp734
Rp735
(dp736
g6
Nsg7
I0
sg8
I1
sg9
Nsg44
(lp737
sbasg44
(F0.0
(F44.5
F48.0
F52.0
tp738
F1.0
tp739
sbag0
(g1
g2
Ntp740
Rp741
(dp742
g6
F4.0
sg7
I3
sg8
I2
sg9
(lp743
g0
(g1
g2
Ntp744
Rp745
(dp746
g6
F2.0
sg7
I2
sg8
I2
sg9
(lp747
g0
(g1
g2
Ntp748
Rp749
(dp750
g6
F1.0
sg7
I1
sg8
I2
sg9
(lp751
g0
(g39
g2
Ntp752
Rp753
(dp754
g43
F52.0
sg44
(lp755
sg9
Nsg6
Nsg46
F52.5
sg7
I0
sg8
I0
sg47
I61
sg48
F49.5
sbag0
(g39
g2
Ntp756
Rp757
(dp758
g43
F52.5
sg44
(lp759
sg9
Nsg6
Nsg46
F53.0
sg7
I0
sg8
I0
sg47
I62
sg48
F52.0
sbasg44
(F0.0
(F49.5
F52.0
F53.0
tp760
F1.0
tp761
sbag0
(g1
g2
Ntp762
Rp763
(dp764
g6
F1.0
sg7
I1
sg8
I2
sg9
(lp765
g0
(g39
g2
Ntp766
Rp767
(dp768
g43
F53.0
sg44
(lp769
sg9
Nsg6
Nsg46
F53.5
sg7
I0
sg8
I0
sg47
I63
sg48
F52.5
sbag0
(g39
g2
Ntp770
Rp771
(dp772
g43
F53.5
sg44
(lp773
sg9
Nsg6
Nsg46
F56.0
sg7
I0
sg8
I0
sg47
I64
sg48
F53.0
sbasg44
(F0.0
(F52.5
F53.0
F56.0
tp774
F1.0
tp775
sbasg44
(F0.0
(F49.5
F52.0
F56.0
tp776
F1.0
tp777
sbag0
(g71
g2
Ntp778
Rp779
(dp780
g6
Nsg7
I0
sg8
I1
sg9
Nsg44
(lp781
sbasg44
(F0.0
(F49.5
F52.0
F56.0
tp782
F1.0
tp783
sbasg44
(F0.0
(F44.5
F48.0
F56.0
tp784
F1.0
tp785
sbag0
(g1
g2
Ntp786
Rp787
(dp788
g6
F8.0
sg7
I4
sg8
I2
sg9
(lp789
g0
(g1
g2
Ntp790
Rp791
(dp792
g6
F4.0
sg7
I3
sg8
I2
sg9
(lp793
g0
(g1
g2
Ntp794
Rp795
(dp796
g6
F2.0
sg7
I2
sg8
I2
sg9
(lp797
g0
(g1
g2
Ntp798
Rp799
(dp800
g6
F1.0
sg7
I1
sg8
I2
sg9
(lp801
g0
(g39
g2
Ntp802
Rp803
(dp804
g43
F56.0
sg44
(lp805
sg9
Nsg6
Nsg46
F56.5
sg7
I0
sg8
I0
sg47
I65
sg48
F53.5
sbag0
(g39
g2
Ntp806
Rp807
(dp808
g43
F56.5
sg44
(lp809
sg9
Nsg6
Nsg46
F57.0
sg7
I0
sg8
I0
sg47
I66
sg48
F56.0
sbasg44
(F0.0
(F53.5
F56.0
F57.0
tp810
F1.0
tp811
sbag0
(g1
g2
Ntp812
Rp813
(dp814
g6
F1.0
sg7
I1
sg8
I2
sg9
(lp815
g0
(g39
g2
Ntp816
Rp817
(dp818
g43
F57.0
sg44
(lp819
sg9
Nsg6
Nsg46
F57.5
sg7
I0
sg8
I0
sg47
I67
sg48
F56.5
sbag0
(g39
g2
Ntp820
Rp821
(dp822
g43
F57.5
sg44
(lp823
sg9
Nsg6
Nsg46
F58.0
sg7
I0
sg8
I0
sg47
I68
sg48
F57.0
sbasg44
(F0.0
(F56.5
F57.0
F58.0
tp824
F1.0
tp825
sbasg44
(F0.0
(F53.5
F56.0
F58.0
tp826
F1.0
tp827
sbag0
(g1
g2
Ntp828
Rp829
(dp830
g6
F2.0
sg7
I2
sg8
I2
sg9
(lp831
g0
(g1
g2
Ntp832
Rp833
(dp834
g6
F1.0
sg7
I1
sg8
I2
sg9
(lp835
g0
(g39
g2
Ntp836
Rp837
(dp838
g43
F58.0
sg44
(lp839
sg9
Nsg6
Nsg46
F58.5
sg7
I0
sg8
I0
sg47
I69
sg48
F57.5
sbag0
(g39
g2
Ntp840
Rp841
(dp842
g43
F58.5
sg44
(lp843
sg9
Nsg6
Nsg46
F59.0
sg7
I0
sg8
I0
sg47
I70
sg48
F58.0
sbasg44
(F0.0
(F57.5
F58.0
F59.0
tp844
F1.0
tp845
sbag0
(g1
g2
Ntp846
Rp847
(dp848
g6
F1.0
sg7
I1
sg8
I2
sg9
(lp849
g0
(g39
g2
Ntp850
Rp851
(dp852
g43
F59.0
sg44
(lp853
sg9
Nsg6
Nsg46
F59.5
sg7
I0
sg8
I0
sg47
I71
sg48
F58.5
sbag0
(g39
g2
Ntp854
Rp855
(dp856
g43
F59.5
sg44
(lp857
sg9
Nsg6
Nsg46
F60.5
sg7
I0
sg8
I0
sg47
I72
sg48
F59.0
sbasg44
(F0.0
(F58.5
F59.0
F60.5
tp858
F1.0
tp859
sbasg44
(F0.0
(F57.5
F58.0
F60.5
tp860
F1.0
tp861
sbasg44
(F0.0
(F53.5
F56.0
F60.5
tp862
F1.0
tp863
sbag0
(g1
g2
Ntp864
Rp865
(dp866
g6
F4.0
sg7
I3
sg8
I2
sg9
(lp867
g0
(g1
g2
Ntp868
Rp869
(dp870
g6
F2.0
sg7
I2
sg8
I2
sg9
(lp871
g0
(g1
g2
Ntp872
Rp873
(dp874
g6
Nsg7
I1
sg8
I2
sg9
(lp875
g0
(g71
g2
Ntp876
Rp877
(dp878
g6
Nsg7
I0
sg8
I1
sg9
Nsg44
(lp879
sbag0
(g39
g2
Ntp880
Rp881
(dp882
g43
F60.5
sg44
(lp883
sg9
Nsg6
Nsg46
F61.0
sg7
I0
sg8
I0
sg47
I73
sg48
F59.5
sbasg44
(F0.5
(F59.5
F60.5
F61.0
tp884
F0.5
tp885
sbag0
(g39
g2
Ntp886
Rp887
(dp888
g43
F61.0
sg44
(lp889
sg9
Nsg6
Nsg46
F64.0
sg7
I0
sg8
I0
sg47
I74
sg48
F60.5
sbasg44
(F0.25
(F59.5
F60.5
F64.0
tp890
F0.75
tp891
sbag0
(g71
g2
Ntp892
Rp893
(dp894
g6
Nsg7
I0
sg8
I1
sg9
Nsg44
(lp895
sbasg44
(F0.125
(F59.5
F60.5
F64.0
tp896
F0.875
tp897
sbasg44
(F0.0
(F53.5
F56.0
F64.0
tp898
F1.0
tp899
sbasg44
(F0.0
(F44.5
F48.0
F64.0
tp900
F1.0
tp901
sbasg44
(F0.0
(F31.666666666666668
F32.0
F64.0
tp902
F1.0
tp903
sbasg44
(F0.0
(I0
F0.0
F64.0
tp904
F1.0
tp905
sbag0
(g1
g2
Ntp906
Rp907
(dp908
g6
F64.0
sg7
I7
sg8
I2
sg9
(lp909
g0
(g1
g2
Ntp910
Rp911
(dp912
g6
F32.0
sg7
I6
sg8
I2
sg9
(lp913
g0
(g1
g2
Ntp914
Rp915
(dp916
g6
F16.0
sg7
I5
sg8
I2
sg9
(lp917
g0
(g1
g2
Ntp918
Rp919
(dp920
g6
F8.0
sg7
I4
sg8
I2
sg9
(lp921
g0
(g1
g2
Ntp922
Rp923
(dp924
g6
F4.0
sg7
I3
sg8
I2
sg9
(lp925
g0
(g1
g2
Ntp926
Rp927
(dp928
g6
F2.0
sg7
I2
sg8
I2
sg9
(lp929
g0
(g1
g2
Ntp930
Rp931
(dp932
g6
F1.0
sg7
I1
sg8
I2
sg9
(lp933
g0
(g39
g2
Ntp934
Rp935
(dp936
g43
F64.0
sg44
(lp937
sg9
Nsg6
Nsg46
F64.5
sg7
I0
sg8
I0
sg47
I75
sg48
F61.0
sbag0
(g39
g2
Ntp938
Rp939
(dp940
g43
F64.5
sg44
(lp941
sg9
Nsg6
Nsg46
F65.0
sg7
I0
sg8
I0
sg47
I76
sg48
F64.0
sbasg44
(F0.0
(F61.0
F64.0
F65.0
tp942
F1.0
tp943
sbag0
(g1
g2
Ntp944
Rp945
(dp946
g6
F1.0
sg7
I1
sg8
I2
sg9
(lp947
g0
(g39
g2
Ntp948
Rp949
(dp950
g43
F65.0
sg44
(lp951
sg9
Nsg6
Nsg46
F65.5
sg7
I0
sg8
I0
sg47
I77
sg48
F64.5
sbag0
(g39
g2
Ntp952
Rp953
(dp954
g43
F65.5
sg44
(lp955
sg9
Nsg6
Nsg46
F68.0
sg7
I0
sg8
I0
sg47
I78
sg48
F65.0
sbasg44
(F0.0
(F64.5
F65.0
F68.0
tp956
F1.0
tp957
sbasg44
(F0.0
(F61.0
F64.0
F68.0
tp958
F1.0
tp959
sbag0
(g71
g2
Ntp960
Rp961
(dp962
g6
Nsg7
I0
sg8
I1
sg9
Nsg44
(lp963
sbasg44
(F0.0
(F61.0
F64.0
F68.0
tp964
F1.0
tp965
sbag0
(g1
g2
Ntp966
Rp967
(dp968
g6
F4.0
sg7
I3
sg8
I2
sg9
(lp969
g0
(g1
g2
Ntp970
Rp971
(dp972
g6
F2.0
sg7
I2
sg8
I2
sg9
(lp973
g0
(g1
g2
Ntp974
Rp975
(dp976
g6
F1.0
sg7
I1
sg8
I2
sg9
(lp977
g0
(g39
g2
Ntp978
Rp979
(dp980
g43
F68.0
sg44
(lp981
sg9
Nsg6
Nsg46
F68.5
sg7
I0
sg8
I0
sg47
I79
sg48
F65.5
sbag0
(g39
g2
Ntp982
Rp983
(dp984
g43
F68.5
sg44
(lp985
sg9
Nsg6
Nsg46
F69.0
sg7
I0
sg8
I0
sg47
I80
sg48
F68.0
sbasg44
(F0.0
(F65.5
F68.0
F69.0
tp986
F1.0
tp987
sbag0
(g1
g2
Ntp988
Rp989
(dp990
g6
F1.0
sg7
I1
sg8
I2
sg9
(lp991
g0
(g39
g2
Ntp992
Rp993
(dp994
g43
F69.0
sg44
(lp995
sg9
Nsg6
Nsg46
F69.5
sg7
I0
sg8
I0
sg47
I81
sg48
F68.5
sbag0
(g39
g2
Ntp996
Rp997
(dp998
g43
F69.5
sg44
(lp999
sg9
Nsg6
Nsg46
F72.0
sg7
I0
sg8
I0
sg47
I82
sg48
F69.0
sbasg44
(F0.0
(F68.5
F69.0
F72.0
tp1000
F1.0
tp1001
sbasg44
(F0.0
(F65.5
F68.0
F72.0
tp1002
F1.0
tp1003
sbag0
(g71
g2
Ntp1004
Rp1005
(dp1006
g6
Nsg7
I0
sg8
I1
sg9
Nsg44
(lp1007
sbasg44
(F0.0
(F65.5
F68.0
F72.0
tp1008
F1.0
tp1009
sbasg44
(F0.0
(F61.0
F64.0
F72.0
tp1010
F1.0
tp1011
sbag0
(g1
g2
Ntp1012
Rp1013
(dp1014
g6
F8.0
sg7
I4
sg8
I2
sg9
(lp1015
g0
(g1
g2
Ntp1016
Rp1017
(dp1018
g6
F4.0
sg7
I3
sg8
I2
sg9
(lp1019
g0
(g1
g2
Ntp1020
Rp1021
(dp1022
g6
F2.0
sg7
I2
sg8
I2
sg9
(lp1023
g0
(g1
g2
Ntp1024
Rp1025
(dp1026
g6
F1.0
sg7
I1
sg8
I2
sg9
(lp1027
g0
(g39
g2
Ntp1028
Rp1029
(dp1030
g43
F72.0
sg44
(lp1031
sg9
Nsg6
Nsg46
F72.5
sg7
I0
sg8
I0
sg47
I83
sg48
F69.5
sbag0
(g39
g2
Ntp1032
Rp1033
(dp1034
g43
F72.5
sg44
(lp1035
sg9
Nsg6
Nsg46
F73.0
sg7
I0
sg8
I0
sg47
I84
sg48
F72.0
sbasg44
(F0.0
(F69.5
F72.0
F73.0
tp1036
F1.0
tp1037
sbag0
(g1
g2
Ntp1038
Rp1039
(dp1040
g6
F1.0
sg7
I1
sg8
I2
sg9
(lp1041
g0
(g39
g2
Ntp1042
Rp1043
(dp1044
g43
F73.0
sg44
(lp1045
sg9
Nsg6
Nsg46
F73.5
sg7
I0
sg8
I0
sg47
I85
sg48
F72.5
sbag0
(g39
g2
Ntp1046
Rp1047
(dp1048
g43
F73.5
sg44
(lp1049
sg9
Nsg6
Nsg46
F74.0
sg7
I0
sg8
I0
sg47
I86
sg48
F73.0
sbasg44
(F0.0
(F72.5
F73.0
F74.0
tp1050
F1.0
tp1051
sbasg44
(F0.0
(F69.5
F72.0
F74.0
tp1052
F1.0
tp1053
sbag0
(g1
g2
Ntp1054
Rp1055
(dp1056
g6
F2.0
sg7
I2
sg8
I2
sg9
(lp1057
g0
(g1
g2
Ntp1058
Rp1059
(dp1060
g6
F1.0
sg7
I1
sg8
I2
sg9
(lp1061
g0
(g39
g2
Ntp1062
Rp1063
(dp1064
g43
F74.0
sg44
(lp1065
sg9
Nsg6
Nsg46
F74.5
sg7
I0
sg8
I0
sg47
I87
sg48
F73.5
sbag0
(g39
g2
Ntp1066
Rp1067
(dp1068
g43
F74.5
sg44
(lp1069
sg9
Nsg6
Nsg46
F75.0
sg7
I0
sg8
I0
sg47
I88
sg48
F74.0
sbasg44
(F0.0
(F73.5
F74.0
F75.0
tp1070
F1.0
tp1071
sbag0
(g1
g2
Ntp1072
Rp1073
(dp1074
g6
F1.0
sg7
I1
sg8
I2
sg9
(lp1075
g0
(g39
g2
Ntp1076
Rp1077
(dp1078
g43
F75.0
sg44
(lp1079
sg9
Nsg6
Nsg46
F75.5
sg7
I0
sg8
I0
sg47
I89
sg48
F74.5
sbag0
(g39
g2
Ntp1080
Rp1081
(dp1082
g43
F75.5
sg44
(lp1083
sg9
Nsg6
Nsg46
F79.0
sg7
I0
sg8
I0
sg47
I90
sg48
F75.0
sbasg44
(F0.0
(F74.5
F75.0
F79.0
tp1084
F1.0
tp1085
sbasg44
(F0.0
(F73.5
F74.0
F79.0
tp1086
F1.0
tp1087
sbasg44
(F0.0
(F69.5
F72.0
F79.0
tp1088
F1.0
tp1089
sbag0
(g1
g2
Ntp1090
Rp1091
(dp1092
g6
F4.000000000000028
sg7
I3
sg8
I2
sg9
(lp1093
g0
(g71
g2
Ntp1094
Rp1095
(dp1096
g6
Nsg7
I0
sg8
I1
sg9
Nsg44
(lp1097
sbag0
(g1
g2
Ntp1098
Rp1099
(dp1100
g6
F2.000000000000014
sg7
I2
sg8
I2
sg9
(lp1101
g0
(g71
g2
Ntp1102
Rp1103
(dp1104
g6
Nsg7
I0
sg8
I1
sg9
Nsg44
(lp1105
sbag0
(g1
g2
Ntp1106
Rp1107
(dp1108
g6
F1.000000000000007
sg7
I1
sg8
I2
sg9
(lp1109
g0
(g39
g2
Ntp1110
Rp1111
(dp1112
g43
F79.0
sg44
(lp1113
sg9
Nsg6
Nsg46
F79.33333333333333
sg7
I0
sg8
I0
sg47
I92
sg48
F75.5
sbag0
(g39
g2
Ntp1114
Rp1115
(dp1116
g43
F79.33333333333333
sg44
(lp1117
sg9
Nsg6
Nsg46
F79.66666666666667
sg7
I0
sg8
I0
sg47
I93
sg48
F79.0
sbag0
(g39
g2
Ntp1118
Rp1119
(dp1120
g43
F79.66666666666667
sg44
(lp1121
sg9
Nsg6
Nsg46
F80.0
sg7
I0
sg8
I0
sg47
I94
sg48
F79.33333333333333
sbasg44
(F0.0
(F75.5
F79.0
F80.0
tp1122
F1.0
tp1123
sbasg44
(F0.5
(F75.5
F79.0
F80.0
tp1124
F0.5
tp1125
sbasg44
(F0.75
(F75.5
F79.0
F80.0
tp1126
F0.25
tp1127
sbasg44
(F0.0
(F69.5
F72.0
F80.0
tp1128
F1.0
tp1129
sbasg44
(F0.0
(F61.0
F64.0
F80.0
tp1130
F1.0
tp1131
sbag0
(g1
g2
Ntp1132
Rp1133
(dp1134
g6
F16.0
sg7
I5
sg8
I2
sg9
(lp1135
g0
(g1
g2
Ntp1136
Rp1137
(dp1138
g6
F8.0
sg7
I4
sg8
I2
sg9
(lp1139
g0
(g1
g2
Ntp1140
Rp1141
(dp1142
g6
F4.0
sg7
I3
sg8
I2
sg9
(lp1143
g0
(g1
g2
Ntp1144
Rp1145
(dp1146
g6
F2.0
sg7
I2
sg8
I2
sg9
(lp1147
g0
(g1
g2
Ntp1148
Rp1149
(dp1150
g6
F1.0
sg7
I1
sg8
I2
sg9
(lp1151
g0
(g39
g2
Ntp1152
Rp1153
(dp1154
g43
F80.0
sg44
(lp1155
sg9
Nsg6
Nsg46
F80.5
sg7
I0
sg8
I0
sg47
I95
sg48
F79.66666666666667
sbag0
(g39
g2
Ntp1156
Rp1157
(dp1158
g43
F80.5
sg44
(lp1159
sg9
Nsg6
Nsg46
F84.0
sg7
I0
sg8
I0
sg47
I96
sg48
F80.0
sbasg44
(F0.0
(F79.66666666666667
F80.0
F84.0
tp1160
F1.0
tp1161
sbag0
(g71
g2
Ntp1162
Rp1163
(dp1164
g6
Nsg7
I0
sg8
I1
sg9
Nsg44
(lp1165
sbasg44
(F0.0
(F79.66666666666667
F80.0
F84.0
tp1166
F1.0
tp1167
sbag0
(g71
g2
Ntp1168
Rp1169
(dp1170
g6
Nsg7
I0
sg8
I1
sg9
Nsg44
(lp1171
sbasg44
(F0.0
(F79.66666666666667
F80.0
F84.0
tp1172
F1.0
tp1173
sbag0
(g1
g2
Ntp1174
Rp1175
(dp1176
g6
F4.0
sg7
I3
sg8
I2
sg9
(lp1177
g0
(g1
g2
Ntp1178
Rp1179
(dp1180
g6
F2.0
sg7
I2
sg8
I2
sg9
(lp1181
g0
(g1
g2
Ntp1182
Rp1183
(dp1184
g6
F1.0
sg7
I1
sg8
I2
sg9
(lp1185
g0
(g39
g2
Ntp1186
Rp1187
(dp1188
g43
F84.0
sg44
(lp1189
sg9
Nsg6
Nsg46
F84.5
sg7
I0
sg8
I0
sg47
I97
sg48
F80.5
sbag0
(g39
g2
Ntp1190
Rp1191
(dp1192
g43
F84.5
sg44
(lp1193
sg9
Nsg6
Nsg46
F85.0
sg7
I0
sg8
I0
sg47
I98
sg48
F84.0
sbasg44
(F0.0
(F80.5
F84.0
F85.0
tp1194
F1.0
tp1195
sbag0
(g1
g2
Ntp1196
Rp1197
(dp1198
g6
F1.0
sg7
I1
sg8
I2
sg9
(lp1199
g0
(g39
g2
Ntp1200
Rp1201
(dp1202
g43
F85.0
sg44
(lp1203
sg9
Nsg6
Nsg46
F85.5
sg7
I0
sg8
I0
sg47
I99
sg48
F84.5
sbag0
(g39
g2
Ntp1204
Rp1205
(dp1206
g43
F85.5
sg44
(lp1207
sg9
Nsg6
Nsg46
F86.0
sg7
I0
sg8
I0
sg47
I100
sg48
F85.0
sbasg44
(F0.0
(F84.5
F85.0
F86.0
tp1208
F1.0
tp1209
sbasg44
(F0.0
(F80.5
F84.0
F86.0
tp1210
F1.0
tp1211
sbag0
(g1
g2
Ntp1212
Rp1213
(dp1214
g6
F2.0
sg7
I2
sg8
I2
sg9
(lp1215
g0
(g1
g2
Ntp1216
Rp1217
(dp1218
g6
F1.0
sg7
I1
sg8
I2
sg9
(lp1219
g0
(g39
g2
Ntp1220
Rp1221
(dp1222
g43
F86.0
sg44
(lp1223
sg9
Nsg6
Nsg46
F86.5
sg7
I0
sg8
I0
sg47
I101
sg48
F85.5
sbag0
(g39
g2
Ntp1224
Rp1225
(dp1226
g43
F86.5
sg44
(lp1227
sg9
Nsg6
Nsg46
F87.0
sg7
I0
sg8
I0
sg47
I102
sg48
F86.0
sbasg44
(F0.0
(F85.5
F86.0
F87.0
tp1228
F1.0
tp1229
sbag0
(g1
g2
Ntp1230
Rp1231
(dp1232
g6
F1.0
sg7
I1
sg8
I2
sg9
(lp1233
g0
(g39
g2
Ntp1234
Rp1235
(dp1236
g43
F87.0
sg44
(lp1237
sg9
Nsg6
Nsg46
F87.5
sg7
I0
sg8
I0
sg47
I103
sg48
F86.5
sbag0
(g39
g2
Ntp1238
Rp1239
(dp1240
g43
F87.5
sg44
(lp1241
sg9
Nsg6
Nsg46
F89.0
sg7
I0
sg8
I0
sg47
I104
sg48
F87.0
sbasg44
(F0.0
(F86.5
F87.0
F89.0
tp1242
F1.0
tp1243
sbasg44
(F0.0
(F85.5
F86.0
F89.0
tp1244
F1.0
tp1245
sbasg44
(F0.0
(F80.5
F84.0
F89.0
tp1246
F1.0
tp1247
sbasg44
(F0.0
(F79.66666666666667
F80.0
F89.0
tp1248
F1.0
tp1249
sbag0
(g1
g2
Ntp1250
Rp1251
(dp1252
g6
F8.0
sg7
I4
sg8
I2
sg9
(lp1253
g0
(g1
g2
Ntp1254
Rp1255
(dp1256
g6
F4.0
sg7
I3
sg8
I2
sg9
(lp1257
g0
(g1
g2
Ntp1258
Rp1259
(dp1260
g6
F2.0
sg7
I2
sg8
I2
sg9
(lp1261
g0
(g71
g2
Ntp1262
Rp1263
(dp1264
g6
Nsg7
I0
sg8
I1
sg9
Nsg44
(lp1265
sbag0
(g1
g2
Ntp1266
Rp1267
(dp1268
g6
F1.0
sg7
I1
sg8
I2
sg9
(lp1269
g0
(g39
g2
Ntp1270
Rp1271
(dp1272
g43
F89.0
sg44
(lp1273
sg9
Nsg6
Nsg46
F89.5
sg7
I0
sg8
I0
sg47
I105
sg48
F87.5
sbag0
(g39
g2
Ntp1274
Rp1275
(dp1276
g43
F89.5
sg44
(lp1277
sg9
Nsg6
Nsg46
F90.0
sg7
I0
sg8
I0
sg47
I106
sg48
F89.0
sbasg44
(F0.0
(F87.5
F89.0
F90.0
tp1278
F1.0
tp1279
sbasg44
(F0.5
(F87.5
F89.0
F90.0
tp1280
F0.5
tp1281
sbag0
(g1
g2
Ntp1282
Rp1283
(dp1284
g6
F2.0
sg7
I2
sg8
I2
sg9
(lp1285
g0
(g1
g2
Ntp1286
Rp1287
(dp1288
g6
F1.0
sg7
I1
sg8
I2
sg9
(lp1289
g0
(g39
g2
Ntp1290
Rp1291
(dp1292
g43
F90.0
sg44
(lp1293
sg9
Nsg6
Nsg46
F90.5
sg7
I0
sg8
I0
sg47
I107
sg48
F89.5
sbag0
(g39
g2
Ntp1294
Rp1295
(dp1296
g43
F90.5
sg44
(lp1297
sg9
Nsg6
Nsg46
F91.0
sg7
I0
sg8
I0
sg47
I108
sg48
F90.0
sbasg44
(F0.0
(F89.5
F90.0
F91.0
tp1298
F1.0
tp1299
sbag0
(g1
g2
Ntp1300
Rp1301
(dp1302
g6
F1.0
sg7
I1
sg8
I2
sg9
(lp1303
g0
(g39
g2
Ntp1304
Rp1305
(dp1306
g43
F91.0
sg44
(lp1307
sg9
Nsg6
Nsg46
F91.5
sg7
I0
sg8
I0
sg47
I109
sg48
F90.5
sbag0
(g39
g2
Ntp1308
Rp1309
(dp1310
g43
F91.5
sg44
(lp1311
sg9
Nsg6
Nsg46
F92.0
sg7
I0
sg8
I0
sg47
I110
sg48
F91.0
sbasg44
(F0.0
(F90.5
F91.0
F92.0
tp1312
F1.0
tp1313
sbasg44
(F0.0
(F89.5
F90.0
F92.0
tp1314
F1.0
tp1315
sbasg44
(F0.25
(F87.5
F89.0
F92.0
tp1316
F0.75
tp1317
sbag0
(g1
g2
Ntp1318
Rp1319
(dp1320
g6
F4.0
sg7
I3
sg8
I2
sg9
(lp1321
g0
(g1
g2
Ntp1322
Rp1323
(dp1324
g6
F2.0
sg7
I2
sg8
I2
sg9
(lp1325
g0
(g1
g2
Ntp1326
Rp1327
(dp1328
g6
F1.0
sg7
I1
sg8
I2
sg9
(lp1329
g0
(g39
g2
Ntp1330
Rp1331
(dp1332
g43
F92.0
sg44
(lp1333
sg9
Nsg6
Nsg46
F92.5
sg7
I0
sg8
I0
sg47
I111
sg48
F91.5
sbag0
(g39
g2
Ntp1334
Rp1335
(dp1336
g43
F92.5
sg44
(lp1337
sg9
Nsg6
Nsg46
F128.0
sg7
I0
sg8
I0
sg47
I112
sg48
F92.0
sbasg44
(F0.0
(F91.5
F92.0
F128.0
tp1338
F1.0
tp1339
sbag0
(g71
g2
Ntp1340
Rp1341
(dp1342
g6
Nsg7
I0
sg8
I1
sg9
Nsg44
(lp1343
sbasg44
(F0.0
(F91.5
F92.0
F128.0
tp1344
F1.0
tp1345
sbag0
(g71
g2
Ntp1346
Rp1347
(dp1348
g6
Nsg7
I0
sg8
I1
sg9
Nsg44
(lp1349
sbasg44
(F0.0
(F91.5
F92.0
F128.0
tp1350
F1.0
tp1351
sbasg44
(F0.125
(F87.5
F89.0
F128.0
tp1352
F0.875
tp1353
sbasg44
(F0.0
(F79.66666666666667
F80.0
F128.0
tp1354
F1.0
tp1355
sbasg44
(F0.0
(F61.0
F64.0
F128.0
tp1356
F1.0
tp1357
sbag0
(g71
g2
Ntp1358
Rp1359
(dp1360
g6
Nsg7
I0
sg8
I1
sg9
Nsg44
(lp1361
sbasg44
(F0.0
(F61.0
F64.0
F128.0
tp1362
F1.0
tp1363
sbasg44
(F0.0
(I0
F0.0
F128.0
tp1364
F1.0
tp1365
sb.