ccopy_reg
_reconstructor
p0
(cjazzr.rhythm.symbol
Symbol
p1
c__builtin__
object
p2
Ntp3
Rp4
(dp5
S'length'
p6
F128.0
sS'depth'
p7
I8
sS'type'
p8
I2
sS'children'
p9
(lp10
g0
(g1
g2
Ntp11
Rp12
(dp13
g6
F64.0
sg7
I7
sg8
I2
sg9
(lp14
g0
(g1
g2
Ntp15
Rp16
(dp17
g6
F32.0
sg7
I6
sg8
I2
sg9
(lp18
g0
(g1
g2
Ntp19
Rp20
(dp21
g6
F16.0
sg7
I5
sg8
I2
sg9
(lp22
g0
(cjazzr.rhythm.symbol
Onset
p23
g2
Ntp24
Rp25
(dp26
S'on'
p27
F0.0
sS'features'
p28
(lp29
sg9
Nsg6
NsS'next'
p30
F9.0
sg7
I0
sg8
I0
sS'annotation'
p31
I0
sS'previous'
p32
I0
sbag0
(g1
g2
Ntp33
Rp34
(dp35
g6
F8.0
sg7
I4
sg8
I2
sg9
(lp36
g0
(g1
g2
Ntp37
Rp38
(dp39
g6
F4.0
sg7
I2
sg8
I2
sg9
(lp40
g0
(g1
g2
Ntp41
Rp42
(dp43
g6
Nsg7
I1
sg8
I2
sg9
(lp44
g0
(cjazzr.rhythm.symbol
Tie
p45
g2
Ntp46
Rp47
(dp48
g6
Nsg7
I0
sg8
I1
sg9
Nsg28
(lp49
sbag0
(g23
g2
Ntp50
Rp51
(dp52
g27
F9.0
sg28
(lp53
sg9
Nsg6
Nsg30
F10.0
sg7
I0
sg8
I0
sg31
I1
sg32
F0.0
sbasg28
(F0.5
(F0.0
F9.0
F10.0
tp54
F0.5
tp55
sbag0
(g1
g2
Ntp56
Rp57
(dp58
g6
F2.0
sg7
I1
sg8
I2
sg9
(lp59
g0
(g23
g2
Ntp60
Rp61
(dp62
g27
F10.0
sg28
(lp63
sg9
Nsg6
Nsg30
F11.0
sg7
I0
sg8
I0
sg31
I2
sg32
F9.0
sbag0
(g23
g2
Ntp64
Rp65
(dp66
g27
F11.0
sg28
(lp67
sg9
Nsg6
Nsg30
F12.0
sg7
I0
sg8
I0
sg31
I3
sg32
F10.0
sbasg28
(F0.0
(F9.0
F10.0
F12.0
tp68
F1.0
tp69
sbasg28
(F0.25
(F0.0
F9.0
F12.0
tp70
F0.75
tp71
sbag0
(g1
g2
Ntp72
Rp73
(dp74
g6
F4.0
sg7
I3
sg8
I2
sg9
(lp75
g0
(g1
g2
Ntp76
Rp77
(dp78
g6
F2.0
sg7
I1
sg8
I2
sg9
(lp79
g0
(g23
g2
Ntp80
Rp81
(dp82
g27
F12.0
sg28
(lp83
sg9
Nsg6
Nsg30
F13.0
sg7
I0
sg8
I0
sg31
I4
sg32
F11.0
sbag0
(g23
g2
Ntp84
Rp85
(dp86
g27
F13.0
sg28
(lp87
sg9
Nsg6
Nsg30
F14.0
sg7
I0
sg8
I0
sg31
I5
sg32
F12.0
sbasg28
(F0.0
(F11.0
F12.0
F14.0
tp88
F1.0
tp89
sbag0
(g1
g2
Ntp90
Rp91
(dp92
g6
F2.0
sg7
I2
sg8
I2
sg9
(lp93
g0
(g23
g2
Ntp94
Rp95
(dp96
g27
F14.0
sg28
(lp97
sg9
Nsg6
Nsg30
F15.0
sg7
I0
sg8
I0
sg31
I6
sg32
F13.0
sbag0
(g1
g2
Ntp98
Rp99
(dp100
g6
F1.0
sg7
I1
sg8
I2
sg9
(lp101
g0
(g23
g2
Ntp102
Rp103
(dp104
g27
F15.0
sg28
(lp105
sg9
Nsg6
Nsg30
F15.5
sg7
I0
sg8
I0
sg31
I7
sg32
F14.0
sbag0
(g23
g2
Ntp106
Rp107
(dp108
g27
F15.5
sg28
(lp109
sg9
Nsg6
Nsg30
F25.0
sg7
I0
sg8
I0
sg31
I8
sg32
F15.0
sbasg28
(F0.0
(F14.0
F15.0
F25.0
tp110
F1.0
tp111
sbasg28
(F0.0
(F13.0
F14.0
F25.0
tp112
F1.0
tp113
sbasg28
(F0.0
(F11.0
F12.0
F25.0
tp114
F1.0
tp115
sbasg28
(F0.125
(F0.0
F9.0
F25.0
tp116
F0.875
tp117
sbasg28
(F0.0
(I0
F0.0
F25.0
tp118
F1.0
tp119
sbag0
(g1
g2
Ntp120
Rp121
(dp122
g6
F16.0
sg7
I5
sg8
I2
sg9
(lp123
g0
(g45
g2
Ntp124
Rp125
(dp126
g6
Nsg7
I0
sg8
I1
sg9
Nsg28
(lp127
sbag0
(g1
g2
Ntp128
Rp129
(dp130
g6
F8.0
sg7
I4
sg8
I2
sg9
(lp131
g0
(g1
g2
Ntp132
Rp133
(dp134
g6
F4.0
sg7
I2
sg8
I2
sg9
(lp135
g0
(g1
g2
Ntp136
Rp137
(dp138
g6
Nsg7
I1
sg8
I2
sg9
(lp139
g0
(g45
g2
Ntp140
Rp141
(dp142
g6
Nsg7
I0
sg8
I1
sg9
Nsg28
(lp143
sbag0
(g23
g2
Ntp144
Rp145
(dp146
g27
F25.0
sg28
(lp147
sg9
Nsg6
Nsg30
F26.0
sg7
I0
sg8
I0
sg31
I9
sg32
F15.5
sbasg28
(F0.5
(F15.5
F25.0
F26.0
tp148
F0.5
tp149
sbag0
(g1
g2
Ntp150
Rp151
(dp152
g6
F2.0
sg7
I1
sg8
I2
sg9
(lp153
g0
(g23
g2
Ntp154
Rp155
(dp156
g27
F26.0
sg28
(lp157
sg9
Nsg6
Nsg30
F27.0
sg7
I0
sg8
I0
sg31
I10
sg32
F25.0
sbag0
(g23
g2
Ntp158
Rp159
(dp160
g27
F27.0
sg28
(lp161
sg9
Nsg6
Nsg30
F28.0
sg7
I0
sg8
I0
sg31
I11
sg32
F26.0
sbasg28
(F0.0
(F25.0
F26.0
F28.0
tp162
F1.0
tp163
sbasg28
(F0.25
(F15.5
F25.0
F28.0
tp164
F0.75
tp165
sbag0
(g1
g2
Ntp166
Rp167
(dp168
g6
F4.0
sg7
I3
sg8
I2
sg9
(lp169
g0
(g1
g2
Ntp170
Rp171
(dp172
g6
F2.0
sg7
I1
sg8
I2
sg9
(lp173
g0
(g23
g2
Ntp174
Rp175
(dp176
g27
F28.0
sg28
(lp177
sg9
Nsg6
Nsg30
F29.0
sg7
I0
sg8
I0
sg31
I12
sg32
F27.0
sbag0
(g23
g2
Ntp178
Rp179
(dp180
g27
F29.0
sg28
(lp181
sg9
Nsg6
Nsg30
F30.0
sg7
I0
sg8
I0
sg31
I13
sg32
F28.0
sbasg28
(F0.0
(F27.0
F28.0
F30.0
tp182
F1.0
tp183
sbag0
(g1
g2
Ntp184
Rp185
(dp186
g6
F2.0
sg7
I2
sg8
I2
sg9
(lp187
g0
(g1
g2
Ntp188
Rp189
(dp190
g6
F1.0
sg7
I1
sg8
I2
sg9
(lp191
g0
(g23
g2
Ntp192
Rp193
(dp194
g27
F30.0
sg28
(lp195
sg9
Nsg6
Nsg30
F30.5
sg7
I0
sg8
I0
sg31
I14
sg32
F29.0
sbag0
(g23
g2
Ntp196
Rp197
(dp198
g27
F30.5
sg28
(lp199
sg9
Nsg6
Nsg30
F31.5
sg7
I0
sg8
I0
sg31
I15
sg32
F30.0
sbasg28
(F0.0
(F29.0
F30.0
F31.5
tp200
F1.0
tp201
sbag0
(g1
g2
Ntp202
Rp203
(dp204
g6
Nsg7
I1
sg8
I2
sg9
(lp205
g0
(g45
g2
Ntp206
Rp207
(dp208
g6
Nsg7
I0
sg8
I1
sg9
Nsg28
(lp209
sbag0
(g23
g2
Ntp210
Rp211
(dp212
g27
F31.5
sg28
(lp213
sg9
Nsg6
Nsg30
F41.0
sg7
I0
sg8
I0
sg31
I16
sg32
F30.5
sbasg28
(F0.5
(F30.5
F31.5
F41.0
tp214
F0.5
tp215
sbasg28
(F0.0
(F29.0
F30.0
F41.0
tp216
F1.0
tp217
sbasg28
(F0.0
(F27.0
F28.0
F41.0
tp218
F1.0
tp219
sbasg28
(F0.125
(F15.5
F25.0
F41.0
tp220
F0.875
tp221
sbasg28
(F0.5625
(F15.5
F25.0
F41.0
tp222
F0.4375
tp223
sbasg28
(F0.0
(I0
F0.0
F41.0
tp224
F1.0
tp225
sbag0
(g1
g2
Ntp226
Rp227
(dp228
g6
F32.0
sg7
I6
sg8
I2
sg9
(lp229
g0
(g1
g2
Ntp230
Rp231
(dp232
g6
F16.0
sg7
I5
sg8
I2
sg9
(lp233
g0
(g45
g2
Ntp234
Rp235
(dp236
g6
Nsg7
I0
sg8
I1
sg9
Nsg28
(lp237
sbag0
(g1
g2
Ntp238
Rp239
(dp240
g6
F8.0
sg7
I4
sg8
I2
sg9
(lp241
g0
(g1
g2
Ntp242
Rp243
(dp244
g6
F4.0
sg7
I3
sg8
I2
sg9
(lp245
g0
(g1
g2
Ntp246
Rp247
(dp248
g6
Nsg7
I1
sg8
I2
sg9
(lp249
g0
(g45
g2
Ntp250
Rp251
(dp252
g6
Nsg7
I0
sg8
I1
sg9
Nsg28
(lp253
sbag0
(g23
g2
Ntp254
Rp255
(dp256
g27
F41.0
sg28
(lp257
sg9
Nsg6
Nsg30
F42.0
sg7
I0
sg8
I0
sg31
I17
sg32
F31.5
sbasg28
(F0.5
(F31.5
F41.0
F42.0
tp258
F0.5
tp259
sbag0
(g1
g2
Ntp260
Rp261
(dp262
g6
F2.0
sg7
I2
sg8
I2
sg9
(lp263
g0
(g1
g2
Ntp264
Rp265
(dp266
g6
F1.0
sg7
I1
sg8
I2
sg9
(lp267
g0
(g23
g2
Ntp268
Rp269
(dp270
g27
F42.0
sg28
(lp271
sg9
Nsg6
Nsg30
F42.5
sg7
I0
sg8
I0
sg31
I18
sg32
F41.0
sbag0
(g23
g2
Ntp272
Rp273
(dp274
g27
F42.5
sg28
(lp275
sg9
Nsg6
Nsg30
F44.0
sg7
I0
sg8
I0
sg31
I19
sg32
F42.0
sbasg28
(F0.0
(F41.0
F42.0
F44.0
tp276
F1.0
tp277
sbag0
(g45
g2
Ntp278
Rp279
(dp280
g6
Nsg7
I0
sg8
I1
sg9
Nsg28
(lp281
sbasg28
(F0.0
(F41.0
F42.0
F44.0
tp282
F1.0
tp283
sbasg28
(F0.25
(F31.5
F41.0
F44.0
tp284
F0.75
tp285
sbag0
(g1
g2
Ntp286
Rp287
(dp288
g6
F4.0
sg7
I2
sg8
I2
sg9
(lp289
g0
(g1
g2
Ntp290
Rp291
(dp292
g6
F2.0
sg7
I1
sg8
I2
sg9
(lp293
g0
(g23
g2
Ntp294
Rp295
(dp296
g27
F44.0
sg28
(lp297
sg9
Nsg6
Nsg30
F45.0
sg7
I0
sg8
I0
sg31
I20
sg32
F42.5
sbag0
(g23
g2
Ntp298
Rp299
(dp300
g27
F45.0
sg28
(lp301
sg9
Nsg6
Nsg30
F46.0
sg7
I0
sg8
I0
sg31
I21
sg32
F44.0
sbasg28
(F0.0
(F42.5
F44.0
F46.0
tp302
F1.0
tp303
sbag0
(g1
g2
Ntp304
Rp305
(dp306
g6
F2.0
sg7
I1
sg8
I2
sg9
(lp307
g0
(g23
g2
Ntp308
Rp309
(dp310
g27
F46.0
sg28
(lp311
sg9
Nsg6
Nsg30
F47.0
sg7
I0
sg8
I0
sg31
I22
sg32
F45.0
sbag0
(g23
g2
Ntp312
Rp313
(dp314
g27
F47.0
sg28
(lp315
sg9
Nsg6
Nsg30
F48.0
sg7
I0
sg8
I0
sg31
I23
sg32
F46.0
sbasg28
(F0.0
(F45.0
F46.0
F48.0
tp316
F1.0
tp317
sbasg28
(F0.0
(F42.5
F44.0
F48.0
tp318
F1.0
tp319
sbasg28
(F0.125
(F31.5
F41.0
F48.0
tp320
F0.875
tp321
sbasg28
(F0.5625
(F31.5
F41.0
F48.0
tp322
F0.4375
tp323
sbag0
(g1
g2
Ntp324
Rp325
(dp326
g6
F16.0
sg7
I5
sg8
I2
sg9
(lp327
g0
(g1
g2
Ntp328
Rp329
(dp330
g6
F8.0
sg7
I4
sg8
I2
sg9
(lp331
g0
(g23
g2
Ntp332
Rp333
(dp334
g27
F48.0
sg28
(lp335
sg9
Nsg6
Nsg30
F54.0
sg7
I0
sg8
I0
sg31
I24
sg32
F47.0
sbag0
(g1
g2
Ntp336
Rp337
(dp338
g6
F4.0
sg7
I3
sg8
I2
sg9
(lp339
g0
(g45
g2
Ntp340
Rp341
(dp342
g6
Nsg7
I0
sg8
I1
sg9
Nsg28
(lp343
sbag0
(g1
g2
Ntp344
Rp345
(dp346
g6
F2.0
sg7
I2
sg8
I2
sg9
(lp347
g0
(g23
g2
Ntp348
Rp349
(dp350
g27
F54.0
sg28
(lp351
sg9
Nsg6
Nsg30
F55.5
sg7
I0
sg8
I0
sg31
I25
sg32
F48.0
sbag0
(g1
g2
Ntp352
Rp353
(dp354
g6
Nsg7
I1
sg8
I2
sg9
(lp355
g0
(g45
g2
Ntp356
Rp357
(dp358
g6
Nsg7
I0
sg8
I1
sg9
Nsg28
(lp359
sbag0
(g23
g2
Ntp360
Rp361
(dp362
g27
F55.5
sg28
(lp363
sg9
Nsg6
Nsg30
F62.0
sg7
I0
sg8
I0
sg31
I26
sg32
F54.0
sbasg28
(F0.5
(F54.0
F55.5
F62.0
tp364
F0.5
tp365
sbasg28
(F0.0
(F48.0
F54.0
F62.0
tp366
F1.0
tp367
sbasg28
(F0.5
(F48.0
F54.0
F62.0
tp368
F0.5
tp369
sbasg28
(F0.0
(F47.0
F48.0
F62.0
tp370
F1.0
tp371
sbag0
(g1
g2
Ntp372
Rp373
(dp374
g6
Nsg7
I2
sg8
I2
sg9
(lp375
g0
(g45
g2
Ntp376
Rp377
(dp378
g6
Nsg7
I0
sg8
I1
sg9
Nsg28
(lp379
sbag0
(g1
g2
Ntp380
Rp381
(dp382
g6
Nsg7
I1
sg8
I2
sg9
(lp383
g0
(g45
g2
Ntp384
Rp385
(dp386
g6
Nsg7
I0
sg8
I1
sg9
Nsg28
(lp387
sbag0
(g23
g2
Ntp388
Rp389
(dp390
g27
F62.0
sg28
(lp391
sg9
Nsg6
Nsg30
F64.0
sg7
I0
sg8
I0
sg31
I27
sg32
F55.5
sbasg28
(F0.5
(F55.5
F62.0
F64.0
tp392
F0.5
tp393
sbasg28
(F0.75
(F55.5
F62.0
F64.0
tp394
F0.25
tp395
sbasg28
(F0.0
(F47.0
F48.0
F64.0
tp396
F1.0
tp397
sbasg28
(F0.28125
(F31.5
F41.0
F64.0
tp398
F0.71875
tp399
sbasg28
(F0.0
(I0
F0.0
F64.0
tp400
F1.0
tp401
sbag0
(g1
g2
Ntp402
Rp403
(dp404
g6
F64.0
sg7
I7
sg8
I2
sg9
(lp405
g0
(g1
g2
Ntp406
Rp407
(dp408
g6
F32.0
sg7
I6
sg8
I2
sg9
(lp409
g0
(g1
g2
Ntp410
Rp411
(dp412
g6
F16.0
sg7
I3
sg8
I2
sg9
(lp413
g0
(g1
g2
Ntp414
Rp415
(dp416
g6
F8.0
sg7
I2
sg8
I2
sg9
(lp417
g0
(g1
g2
Ntp418
Rp419
(dp420
g6
F4.0
sg7
I1
sg8
I2
sg9
(lp421
g0
(g23
g2
Ntp422
Rp423
(dp424
g27
F64.0
sg28
(lp425
sg9
Nsg6
Nsg30
F66.0
sg7
I0
sg8
I0
sg31
I28
sg32
F62.0
sbag0
(g23
g2
Ntp426
Rp427
(dp428
g27
F66.0
sg28
(lp429
sg9
Nsg6
Nsg30
F68.0
sg7
I0
sg8
I0
sg31
I29
sg32
F64.0
sbasg28
(F0.0
(F62.0
F64.0
F68.0
tp430
F1.0
tp431
sbag0
(g1
g2
Ntp432
Rp433
(dp434
g6
F4.0
sg7
I1
sg8
I2
sg9
(lp435
g0
(g23
g2
Ntp436
Rp437
(dp438
g27
F68.0
sg28
(lp439
sg9
Nsg6
Nsg30
F70.0
sg7
I0
sg8
I0
sg31
I30
sg32
F66.0
sbag0
(g23
g2
Ntp440
Rp441
(dp442
g27
F70.0
sg28
(lp443
sg9
Nsg6
Nsg30
F72.0
sg7
I0
sg8
I0
sg31
I31
sg32
F68.0
sbasg28
(F0.0
(F66.0
F68.0
F72.0
tp444
F1.0
tp445
sbasg28
(F0.0
(F62.0
F64.0
F72.0
tp446
F1.0
tp447
sbag0
(g23
g2
Ntp448
Rp449
(dp450
g27
F72.0
sg28
(lp451
sg9
Nsg6
Nsg30
F81.0
sg7
I0
sg8
I0
sg31
I32
sg32
F70.0
sbasg28
(F0.0
(F62.0
F64.0
F81.0
tp452
F1.0
tp453
sbag0
(g1
g2
Ntp454
Rp455
(dp456
g6
F16.0
sg7
I5
sg8
I2
sg9
(lp457
g0
(g1
g2
Ntp458
Rp459
(dp460
g6
F8.0
sg7
I4
sg8
I2
sg9
(lp461
g0
(g1
g2
Ntp462
Rp463
(dp464
g6
F4.0
sg7
I2
sg8
I2
sg9
(lp465
g0
(g1
g2
Ntp466
Rp467
(dp468
g6
Nsg7
I1
sg8
I2
sg9
(lp469
g0
(g45
g2
Ntp470
Rp471
(dp472
g6
Nsg7
I0
sg8
I1
sg9
Nsg28
(lp473
sbag0
(g23
g2
Ntp474
Rp475
(dp476
g27
F81.0
sg28
(lp477
sg9
Nsg6
Nsg30
F82.0
sg7
I0
sg8
I0
sg31
I33
sg32
F72.0
sbasg28
(F0.5
(F72.0
F81.0
F82.0
tp478
F0.5
tp479
sbag0
(g1
g2
Ntp480
Rp481
(dp482
g6
F2.0
sg7
I1
sg8
I2
sg9
(lp483
g0
(g23
g2
Ntp484
Rp485
(dp486
g27
F82.0
sg28
(lp487
sg9
Nsg6
Nsg30
F83.0
sg7
I0
sg8
I0
sg31
I34
sg32
F81.0
sbag0
(g23
g2
Ntp488
Rp489
(dp490
g27
F83.0
sg28
(lp491
sg9
Nsg6
Nsg30
F84.0
sg7
I0
sg8
I0
sg31
I35
sg32
F82.0
sbasg28
(F0.0
(F81.0
F82.0
F84.0
tp492
F1.0
tp493
sbasg28
(F0.25
(F72.0
F81.0
F84.0
tp494
F0.75
tp495
sbag0
(g1
g2
Ntp496
Rp497
(dp498
g6
F4.0
sg7
I3
sg8
I2
sg9
(lp499
g0
(g1
g2
Ntp500
Rp501
(dp502
g6
F2.0
sg7
I2
sg8
I2
sg9
(lp503
g0
(g1
g2
Ntp504
Rp505
(dp506
g6
F1.0
sg7
I1
sg8
I2
sg9
(lp507
g0
(g23
g2
Ntp508
Rp509
(dp510
g27
F84.0
sg28
(lp511
sg9
Nsg6
Nsg30
F84.5
sg7
I0
sg8
I0
sg31
I36
sg32
F83.0
sbag0
(g23
g2
Ntp512
Rp513
(dp514
g27
F84.5
sg28
(lp515
sg9
Nsg6
Nsg30
F86.0
sg7
I0
sg8
I0
sg31
I37
sg32
F84.0
sbasg28
(F0.0
(F83.0
F84.0
F86.0
tp516
F1.0
tp517
sbag0
(g45
g2
Ntp518
Rp519
(dp520
g6
Nsg7
I0
sg8
I1
sg9
Nsg28
(lp521
sbasg28
(F0.0
(F83.0
F84.0
F86.0
tp522
F1.0
tp523
sbag0
(g1
g2
Ntp524
Rp525
(dp526
g6
F2.0
sg7
I2
sg8
I2
sg9
(lp527
g0
(g23
g2
Ntp528
Rp529
(dp530
g27
F86.0
sg28
(lp531
sg9
Nsg6
Nsg30
F87.0
sg7
I0
sg8
I0
sg31
I38
sg32
F84.5
sbag0
(g1
g2
Ntp532
Rp533
(dp534
g6
F1.0
sg7
I1
sg8
I2
sg9
(lp535
g0
(g23
g2
Ntp536
Rp537
(dp538
g27
F87.0
sg28
(lp539
sg9
Nsg6
Nsg30
F87.5
sg7
I0
sg8
I0
sg31
I39
sg32
F86.0
sbag0
(g23
g2
Ntp540
Rp541
(dp542
g27
F87.5
sg28
(lp543
sg9
Nsg6
Nsg30
F97.0
sg7
I0
sg8
I0
sg31
I40
sg32
F87.0
sbasg28
(F0.0
(F86.0
F87.0
F97.0
tp544
F1.0
tp545
sbasg28
(F0.0
(F84.5
F86.0
F97.0
tp546
F1.0
tp547
sbasg28
(F0.0
(F83.0
F84.0
F97.0
tp548
F1.0
tp549
sbasg28
(F0.125
(F72.0
F81.0
F97.0
tp550
F0.875
tp551
sbag0
(g45
g2
Ntp552
Rp553
(dp554
g6
Nsg7
I0
sg8
I1
sg9
Nsg28
(lp555
sbasg28
(F0.0625
(F72.0
F81.0
F97.0
tp556
F0.9375
tp557
sbasg28
(F0.0
(F62.0
F64.0
F97.0
tp558
F1.0
tp559
sbag0
(g1
g2
Ntp560
Rp561
(dp562
g6
F32.0
sg7
I6
sg8
I2
sg9
(lp563
g0
(g1
g2
Ntp564
Rp565
(dp566
g6
F16.0
sg7
I5
sg8
I2
sg9
(lp567
g0
(g1
g2
Ntp568
Rp569
(dp570
g6
F8.0
sg7
I4
sg8
I2
sg9
(lp571
g0
(g1
g2
Ntp572
Rp573
(dp574
g6
F4.0
sg7
I3
sg8
I2
sg9
(lp575
g0
(g1
g2
Ntp576
Rp577
(dp578
g6
Nsg7
I1
sg8
I2
sg9
(lp579
g0
(g45
g2
Ntp580
Rp581
(dp582
g6
Nsg7
I0
sg8
I1
sg9
Nsg28
(lp583
sbag0
(g23
g2
Ntp584
Rp585
(dp586
g27
F97.0
sg28
(lp587
sg9
Nsg6
Nsg30
F98.0
sg7
I0
sg8
I0
sg31
I41
sg32
F87.5
sbasg28
(F0.5
(F87.5
F97.0
F98.0
tp588
F0.5
tp589
sbag0
(g1
g2
Ntp590
Rp591
(dp592
g6
F2.0
sg7
I2
sg8
I2
sg9
(lp593
g0
(g1
g2
Ntp594
Rp595
(dp596
g6
F1.0
sg7
I1
sg8
I2
sg9
(lp597
g0
(g23
g2
Ntp598
Rp599
(dp600
g27
F98.0
sg28
(lp601
sg9
Nsg6
Nsg30
F98.5
sg7
I0
sg8
I0
sg31
I42
sg32
F97.0
sbag0
(g23
g2
Ntp602
Rp603
(dp604
g27
F98.5
sg28
(lp605
sg9
Nsg6
Nsg30
F99.5
sg7
I0
sg8
I0
sg31
I43
sg32
F98.0
sbasg28
(F0.0
(F97.0
F98.0
F99.5
tp606
F1.0
tp607
sbag0
(g1
g2
Ntp608
Rp609
(dp610
g6
Nsg7
I1
sg8
I2
sg9
(lp611
g0
(g45
g2
Ntp612
Rp613
(dp614
g6
Nsg7
I0
sg8
I1
sg9
Nsg28
(lp615
sbag0
(g23
g2
Ntp616
Rp617
(dp618
g27
F99.5
sg28
(lp619
sg9
Nsg6
Nsg30
F100.5
sg7
I0
sg8
I0
sg31
I44
sg32
F98.5
sbasg28
(F0.5
(F98.5
F99.5
F100.5
tp620
F0.5
tp621
sbasg28
(F0.0
(F97.0
F98.0
F100.5
tp622
F1.0
tp623
sbasg28
(F0.25
(F87.5
F97.0
F100.5
tp624
F0.75
tp625
sbag0
(g1
g2
Ntp626
Rp627
(dp628
g6
F4.0
sg7
I3
sg8
I2
sg9
(lp629
g0
(g1
g2
Ntp630
Rp631
(dp632
g6
F2.0
sg7
I2
sg8
I2
sg9
(lp633
g0
(g1
g2
Ntp634
Rp635
(dp636
g6
Nsg7
I1
sg8
I2
sg9
(lp637
g0
(g45
g2
Ntp638
Rp639
(dp640
g6
Nsg7
I0
sg8
I1
sg9
Nsg28
(lp641
sbag0
(g23
g2
Ntp642
Rp643
(dp644
g27
F100.5
sg28
(lp645
sg9
Nsg6
Nsg30
F101.5
sg7
I0
sg8
I0
sg31
I45
sg32
F99.5
sbasg28
(F0.5
(F99.5
F100.5
F101.5
tp646
F0.5
tp647
sbag0
(g1
g2
Ntp648
Rp649
(dp650
g6
Nsg7
I1
sg8
I2
sg9
(lp651
g0
(g45
g2
Ntp652
Rp653
(dp654
g6
Nsg7
I0
sg8
I1
sg9
Nsg28
(lp655
sbag0
(g23
g2
Ntp656
Rp657
(dp658
g27
F101.5
sg28
(lp659
sg9
Nsg6
Nsg30
F102.5
sg7
I0
sg8
I0
sg31
I46
sg32
F100.5
sbasg28
(F0.5
(F100.5
F101.5
F102.5
tp660
F0.5
tp661
sbasg28
(F0.25
(F99.5
F100.5
F102.5
tp662
F0.75
tp663
sbag0
(g1
g2
Ntp664
Rp665
(dp666
g6
Nsg7
I2
sg8
I2
sg9
(lp667
g0
(g1
g2
Ntp668
Rp669
(dp670
g6
Nsg7
I1
sg8
I2
sg9
(lp671
g0
(g45
g2
Ntp672
Rp673
(dp674
g6
Nsg7
I0
sg8
I1
sg9
Nsg28
(lp675
sbag0
(g23
g2
Ntp676
Rp677
(dp678
g27
F102.5
sg28
(lp679
sg9
Nsg6
Nsg30
F104.0
sg7
I0
sg8
I0
sg31
I47
sg32
F101.5
sbasg28
(F0.5
(F101.5
F102.5
F104.0
tp680
F0.5
tp681
sbag0
(g45
g2
Ntp682
Rp683
(dp684
g6
Nsg7
I0
sg8
I1
sg9
Nsg28
(lp685
sbasg28
(F0.25
(F101.5
F102.5
F104.0
tp686
F0.75
tp687
sbasg28
(F0.125
(F99.5
F100.5
F104.0
tp688
F0.875
tp689
sbasg28
(F0.125
(F87.5
F97.0
F104.0
tp690
F0.875
tp691
sbag0
(g23
g2
Ntp692
Rp693
(dp694
g27
F104.0
sg28
(lp695
sg9
Nsg6
Nsg30
F112.5
sg7
I0
sg8
I0
sg31
I48
sg32
F102.5
sbasg28
(F0.0625
(F87.5
F97.0
F112.5
tp696
F0.9375
tp697
sbag0
(g1
g2
Ntp698
Rp699
(dp700
g6
F16.0
sg7
I5
sg8
I2
sg9
(lp701
g0
(g1
g2
Ntp702
Rp703
(dp704
g6
F8.0
sg7
I4
sg8
I2
sg9
(lp705
g0
(g1
g2
Ntp706
Rp707
(dp708
g6
F4.0
sg7
I3
sg8
I2
sg9
(lp709
g0
(g1
g2
Ntp710
Rp711
(dp712
g6
F2.0
sg7
I2
sg8
I2
sg9
(lp713
g0
(g1
g2
Ntp714
Rp715
(dp716
g6
Nsg7
I1
sg8
I2
sg9
(lp717
g0
(g45
g2
Ntp718
Rp719
(dp720
g6
Nsg7
I0
sg8
I1
sg9
Nsg28
(lp721
sbag0
(g23
g2
Ntp722
Rp723
(dp724
g27
F112.5
sg28
(lp725
sg9
Nsg6
Nsg30
F113.5
sg7
I0
sg8
I0
sg31
I49
sg32
F104.0
sbasg28
(F0.5
(F104.0
F112.5
F113.5
tp726
F0.5
tp727
sbag0
(g1
g2
Ntp728
Rp729
(dp730
g6
Nsg7
I1
sg8
I2
sg9
(lp731
g0
(g45
g2
Ntp732
Rp733
(dp734
g6
Nsg7
I0
sg8
I1
sg9
Nsg28
(lp735
sbag0
(g23
g2
Ntp736
Rp737
(dp738
g27
F113.5
sg28
(lp739
sg9
Nsg6
Nsg30
F114.5
sg7
I0
sg8
I0
sg31
I50
sg32
F112.5
sbasg28
(F0.5
(F112.5
F113.5
F114.5
tp740
F0.5
tp741
sbasg28
(F0.25
(F104.0
F112.5
F114.5
tp742
F0.75
tp743
sbag0
(g1
g2
Ntp744
Rp745
(dp746
g6
F2.0
sg7
I2
sg8
I2
sg9
(lp747
g0
(g1
g2
Ntp748
Rp749
(dp750
g6
Nsg7
I1
sg8
I2
sg9
(lp751
g0
(g45
g2
Ntp752
Rp753
(dp754
g6
Nsg7
I0
sg8
I1
sg9
Nsg28
(lp755
sbag0
(g23
g2
Ntp756
Rp757
(dp758
g27
F114.5
sg28
(lp759
sg9
Nsg6
Nsg30
F115.5
sg7
I0
sg8
I0
sg31
I51
sg32
F113.5
sbasg28
(F0.5
(F113.5
F114.5
F115.5
tp760
F0.5
tp761
sbag0
(g1
g2
Ntp762
Rp763
(dp764
g6
Nsg7
I1
sg8
I2
sg9
(lp765
g0
(g45
g2
Ntp766
Rp767
(dp768
g6
Nsg7
I0
sg8
I1
sg9
Nsg28
(lp769
sbag0
(g23
g2
Ntp770
Rp771
(dp772
g27
F115.5
sg28
(lp773
sg9
Nsg6
Nsg30
F116.5
sg7
I0
sg8
I0
sg31
I52
sg32
F114.5
sbasg28
(F0.5
(F114.5
F115.5
F116.5
tp774
F0.5
tp775
sbasg28
(F0.25
(F113.5
F114.5
F116.5
tp776
F0.75
tp777
sbasg28
(F0.125
(F104.0
F112.5
F116.5
tp778
F0.875
tp779
sbag0
(g1
g2
Ntp780
Rp781
(dp782
g6
F4.0
sg7
I3
sg8
I2
sg9
(lp783
g0
(g1
g2
Ntp784
Rp785
(dp786
g6
Nsg7
I2
sg8
I2
sg9
(lp787
g0
(g1
g2
Ntp788
Rp789
(dp790
g6
Nsg7
I1
sg8
I2
sg9
(lp791
g0
(g45
g2
Ntp792
Rp793
(dp794
g6
Nsg7
I0
sg8
I1
sg9
Nsg28
(lp795
sbag0
(g23
g2
Ntp796
Rp797
(dp798
g27
F116.5
sg28
(lp799
sg9
Nsg6
Nsg30
F118.0
sg7
I0
sg8
I0
sg31
I53
sg32
F115.5
sbasg28
(F0.5
(F115.5
F116.5
F118.0
tp800
F0.5
tp801
sbag0
(g45
g2
Ntp802
Rp803
(dp804
g6
Nsg7
I0
sg8
I1
sg9
Nsg28
(lp805
sbasg28
(F0.25
(F115.5
F116.5
F118.0
tp806
F0.75
tp807
sbag0
(g1
g2
Ntp808
Rp809
(dp810
g6
F2.0
sg7
I1
sg8
I2
sg9
(lp811
g0
(g23
g2
Ntp812
Rp813
(dp814
g27
F118.0
sg28
(lp815
sg9
Nsg6
Nsg30
F119.0
sg7
I0
sg8
I0
sg31
I54
sg32
F116.5
sbag0
(g23
g2
Ntp816
Rp817
(dp818
g27
F119.0
sg28
(lp819
sg9
Nsg6
Nsg30
F128.0
sg7
I0
sg8
I0
sg31
I55
sg32
F118.0
sbasg28
(F0.0
(F116.5
F118.0
F128.0
tp820
F1.0
tp821
sbasg28
(F0.125
(F115.5
F116.5
F128.0
tp822
F0.875
tp823
sbasg28
(F0.0625
(F104.0
F112.5
F128.0
tp824
F0.9375
tp825
sbag0
(g45
g2
Ntp826
Rp827
(dp828
g6
Nsg7
I0
sg8
I1
sg9
Nsg28
(lp829
sbasg28
(F0.03125
(F104.0
F112.5
F128.0
tp830
F0.96875
tp831
sbasg28
(F0.03125
(F87.5
F97.0
F128.0
tp832
F0.96875
tp833
sbasg28
(F0.0
(F62.0
F64.0
F128.0
tp834
F1.0
tp835
sbasg28
(F0.0
(I0
F0.0
F128.0
tp836
F1.0
tp837
sb.