ccopy_reg
_reconstructor
p0
(cjazzr.rhythm.symbol
Symbol
p1
c__builtin__
object
p2
Ntp3
Rp4
(dp5
S'divisions'
p6
(lp7
I3
aI2
aI2
aI2
aI2
aI2
aI2
aI2
aI2
asS'features'
p8
(F0.0
(I0
F0.0
F260.0
tp9
tp10
sS'perf_beats'
p11
(lp12
F779591.966666667
aF32569393.183333375
asS'likelihood'
p13
F1.0
sS'onsets'
p14
(lp15
NaNasS'posterior'
p16
F1.8890843401622192e-159
sS'n'
p17
I1
sS'prior'
p18
F1.8890843401622192e-159
sS'depth'
p19
I9
sS'perf_on'
p20
(F0.0
F779591.966666667
tp21
sS'length'
p22
F256.0
sS'type'
p23
I2
sS'children'
p24
(lp25
g0
(g1
g2
Ntp26
Rp27
(dp28
g6
(lp29
I3
aI2
aI2
aI2
aI2
aI2
aI2
aI2
asg8
(F0.0
(I0
F0.0
F140.0
tp30
tp31
sg11
(lp32
F779591.966666667
aF16624492.566666655
asg13
F1.0
sg14
(lp33
NaNasg16
F2.9815907659641074e-83
sg17
I1
sg18
F2.9815907659641074e-83
sg19
I8
sg20
(F0.0
F779591.966666667
tp34
sg22
F128.0
sg23
I2
sg24
(lp35
g0
(g1
g2
Ntp36
Rp37
(dp38
g6
(lp39
I3
aI2
aI2
aI2
aI2
aI2
aI2
asg8
(F0.0
(I0
F0.0
F66.0
tp40
tp41
sg11
(lp42
F779591.966666667
aF8830613.716666665
asg13
F1.0
sg14
(lp43
Nag0
(cjazzr.rhythm.symbol
Onset
p44
g2
Ntp45
Rp46
(dp47
S'on'
p48
F32.0
sg11
(lp49
sg8
(lp50
sS'index'
p51
I14
sg13
Nsg14
(lp52
sg24
Nsg22
Nsg6
(lp53
sg18
F1.0
sg19
I0
sg20
NsS'next'
p54
F33.0
sg23
I0
sS'annotation'
p55
(ijazzr.annotation
Annotation
p56
(dp57
S'scale'
p58
I1000000
sS'name'
p59
S'brazil-3-10-0'
p60
sS'notes'
p61
(lp62
(F1628571.7000000002
F1824490.1
I62
I127
tp63
a(F1946939.1
F3951021.0666666664
I71
I127
tp64
a(F4165306.8166666664
F4261225.199999999
I74
I120
tp65
a(F4414286.449999999
F4546939.533333333
I74
I125
tp66
a(F4665306.9
F4763266.1
I71
I127
tp67
a(F4918368.166666666
F5044898.800000001
I71
I127
tp68
a(F5177551.883333333
F5287755.983333332
I69
I93
tp69
a(F5432653.966666667
F5555102.966666667
I69
I125
tp70
a(F5655102.983333332
F5759184.633333333
I67
I122
tp71
a(F5804082.6
F7775511.5
I69
I127
tp72
a(F8093878.899999999
F8193878.916666667
I74
I127
tp73
a(F8330613.633333333
F8457144.266666666
I74
I127
tp74
a(F8579593.266666666
F8679593.283333335
I71
I126
tp75
a(F8830613.716666665
F8965307.616666667
I71
I127
tp76
a(F9071430.083333332
F9189797.45
I69
I120
tp77
a(F9322450.533333335
F9442858.716666665
I69
I126
tp78
a(F9548981.183333334
F9651022.016666666
I67
I127
tp79
a(F9708164.883333333
F11630614.183333334
I69
I127
tp80
a(F12006124.45
F12104083.649999999
I74
I127
tp81
a(F12244900.0
F12371430.633333333
I74
I127
tp82
a(F12481634.733333334
F12581634.75
I71
I127
tp83
a(F12744900.083333332
F12859185.816666666
I71
I127
tp84
a(F12997961.350000001
F13097961.366666667
I69
I104
tp85
a(F13246940.983333334
F13359185.899999999
I69
I126
tp86
a(F13477553.266666666
F13581634.916666668
I67
I125
tp87
a(F13734696.166666668
F14916329.016666666
I71
I127
tp88
a(F15200002.533333335
F15497961.766666666
I66
I127
tp89
a(F15559186.266666666
F17048982.43333333
I64
I127
tp90
a(F17161227.35
F17469390.666666664
I66
I127
tp91
a(F17653064.166666664
F17924492.78333333
I71
I127
tp92
a(F18167349.96666667
F18475513.28333333
I71
I127
tp93
a(F18644901.06666667
F18944901.116666667
I70
I127
tp94
a(F19112248.083333336
F19420411.4
I69
I127
tp95
a(F19608166.53333333
F21559187.266666666
I74
I127
tp96
a(F21804085.266666666
F21904085.28333333
I74
I127
tp97
a(F22044901.633333333
F22163269.0
I74
I127
tp98
a(F22289799.633333333
F22400003.733333334
I73
I127
tp99
a(F22548983.35
F22679595.616666667
I72
I127
tp100
a(F22773473.18333333
F22885718.1
I71
I122
tp101
a(F23028575.266666666
F23169391.616666667
I70
I127
tp102
a(F23273473.266666666
F23379595.733333334
I71
I110
tp103
a(F23428575.333333336
F25495922.616666667
I74
I127
tp104
a(F25728575.71666667
F25828575.733333334
I74
I127
tp105
a(F25977555.35
F26112249.25
I74
I121
tp106
a(F26130616.6
F26222453.35
I73
I126
tp107
a(F26361228.883333333
F26461228.9
I72
I127
tp108
a(F26597963.616666667
F26722453.43333333
I71
I115
tp109
a(F26842861.616666667
F26940820.81666667
I70
I127
tp110
a(F27085718.799999997
F27310208.633333333
I71
I127
tp111
a(F27436739.266666666
F29357147.75
I74
I127
tp112
a(F29628576.366666667
F29726535.56666667
I74
I127
tp113
a(F29875515.18333333
F30022453.983333334
I74
I127
tp114
a(F30036739.700000003
F30142862.166666664
I73
I116
tp115
a(F30271433.616666667
F30375515.266666666
I72
I127
tp116
a(F30518372.43333333
F30761229.616666667
I71
I127
tp117
a(F30895923.516666666
F31004086.799999997
I70
I127
tp118
a(F31112250.083333336
F31224495.0
I71
I127
tp119
a(F31375515.433333334
F34863271.11666666
I72
I127
tp120
a(F35302046.7
F37267353.150000006
I72
I127
tp121
a(F37397965.41666667
F37504087.88333334
I72
I127
tp122
a(F37646945.05
F37793883.849999994
I72
I127
tp123
a(F37891843.05
F38012251.233333334
I71
I127
tp124
a(F38114292.06666666
F38257149.233333334
I71
I122
tp125
a(F38367353.33333333
F38624496.233333334
I69
I124
tp126
a(F38708169.71666667
F38830618.71666667
I67
I124
tp127
a(F38934700.36666666
F39012251.400000006
I66
I127
tp128
a(F39197965.71666667
F41193884.41666667
I69
I127
tp129
a(F41397966.08333333
F41522455.900000006
I67
I124
tp130
a(F41655108.983333334
F41773476.349999994
I69
I115
tp131
a(F41889802.900000006
F41993884.55
I71
I127
tp132
a(F42153068.25
F42404088.7
I74
I127
tp133
a(F42510211.16666667
F42712252.016666666
I71
I127
tp134
a(F42844905.099999994
F42948986.75
I67
I127
tp135
a(F43130619.43333334
F44924497.28333333
I67
I127
tp136
a(F45089803.43333334
F45361232.05
I69
I127
tp137
a(F45469395.33333333
F45593885.150000006
I69
I127
tp138
a(F45793885.18333334
F45906130.099999994
I69
I127
tp139
a(F46063272.983333334
F46624497.56666666
I69
I127
tp140
a(F46651028.18333334
F46940824.150000006
I67
I126
tp141
a(F47034701.71666667
F48246946.81666666
I71
I127
tp142
a(F48504089.71666667
F48800008.13333334
I66
I127
tp143
a(F48885722.43333334
F50414294.11666666
I64
I127
tp144
a(F50459192.08333333
F50802049.28333333
I66
I127
tp145
a(F50859192.150000006
F52304090.349999994
I71
I127
tp146
a(F52428580.16666667
F52675518.983333334
I66
I127
tp147
a(F52797967.983333334
F53851029.38333334
I64
I127
tp148
a(F54255111.08333333
F54295927.41666667
I66
I104
tp149
a(F54375519.266666666
F54497968.266666666
I69
I122
tp150
a(F54493886.63333334
F54612254.0
I67
I91
tp151
a(F54597968.28333333
F54724498.91666667
I66
I121
tp152
a(F54726539.733333334
F54818376.483333334
I64
I119
tp153
a(F54869396.900000006
F54957152.016666666
I62
I127
tp154
a(F55118376.53333333
F55179601.03333333
I63
I127
tp155
a(F55369396.983333334
F55453070.46666667
I64
I127
tp156
a(F55859192.983333334
F55967356.266666666
I62
I121
tp157
a(F56102050.16666667
F56138784.86666666
I63
I104
tp158
a(F56228580.8
F56316335.91666667
I64
I125
tp159
a(F56459193.08333333
F56553070.650000006
I64
I127
tp160
a(F56589805.349999994
F56655111.483333334
I63
I127
tp161
a(F56855111.516666666
F56965315.61666666
I62
I125
tp162
a(F57079601.349999994
F57146948.3
I63
I127
tp163
a(F57342866.7
F57457152.43333334
I64
I125
tp164
a(F57808172.900000006
F57918377.0
I62
I117
tp165
a(F58048989.266666666
F58093887.233333334
I63
I94
tp166
a(F58187764.8
F58275519.91666667
I64
I113
tp167
a(F58428581.16666667
F58546948.53333333
I62
I127
tp168
a(F58663275.08333333
F58775520.0
I71
I127
tp169
a(F88191851.43333334
F91679607.11666667
I72
I127
tp170
a(F92118382.69999999
F94083689.15
I72
I127
tp171
a(F94214301.41666666
F94320423.88333333
I72
I127
tp172
a(F94463281.05000001
F94610219.85
I72
I127
tp173
a(F94708179.05000001
F94828587.23333332
I71
I127
tp174
a(F94930628.06666666
F95073485.23333332
I71
I122
tp175
a(F95183689.33333334
F95440832.23333332
I69
I124
tp176
a(F95524505.71666667
F95646954.71666667
I67
I124
tp177
a(F95751036.36666667
F95828587.4
I66
I127
tp178
a(F96014301.71666667
F98010220.41666666
I69
I127
tp179
a(F98214302.08333334
F98338791.9
I67
I124
tp180
a(F98471444.98333332
F98589812.35
I69
I115
tp181
a(F98706138.9
F98810220.55000001
I71
I127
tp182
a(F98969404.25
F99220424.69999999
I74
I127
tp183
a(F99326547.16666666
F99528588.01666668
I71
I127
tp184
a(F99661241.1
F99765322.75
I67
I127
tp185
a(F99946955.43333334
F101740833.28333333
I67
I127
tp186
a(F101906139.43333334
F102177568.05000001
I69
I127
tp187
a(F102285731.33333334
F102410221.15
I69
I127
tp188
a(F102610221.18333334
F102722466.1
I69
I127
tp189
a(F102879608.98333332
F103440833.56666666
I69
I127
tp190
a(F103467364.18333334
F103757160.15
I67
I126
tp191
a(F103851037.71666667
F105063282.81666666
I71
I127
tp192
a(F105320425.71666667
F105616344.13333333
I66
I127
tp193
a(F105702058.43333334
F107230630.11666667
I64
I127
tp194
a(F107275528.08333334
F107618385.28333333
I66
I127
tp195
a(F107675528.15
F109120426.35
I71
I127
tp196
a(F109244916.16666666
F109491854.98333332
I66
I127
tp197
a(F109614303.98333332
F110667365.38333333
I64
I127
tp198
a(F111071447.08333334
F111112263.41666666
I66
I104
tp199
a(F111191855.26666668
F111314304.26666668
I69
I122
tp200
a(F111310222.63333333
F111428590.0
I67
I91
tp201
a(F111414304.28333333
F111540834.91666666
I66
I121
tp202
a(F111542875.73333332
F111634712.48333332
I64
I119
tp203
a(F111685732.9
F111773488.01666668
I62
I127
tp204
a(F111934712.53333333
F111995937.03333333
I63
I127
tp205
a(F112185732.98333332
F112269406.46666667
I64
I127
tp206
a(F112675528.98333332
F112783692.26666668
I62
I121
tp207
a(F112918386.16666666
F112955120.86666667
I63
I104
tp208
a(F113044916.80000001
F113132671.91666666
I64
I125
tp209
a(F113275529.08333334
F113369406.65
I64
I127
tp210
a(F113406141.35
F113471447.48333332
I63
I127
tp211
a(F113671447.51666668
F113781651.61666667
I62
I125
tp212
a(F113895937.35
F113963284.30000001
I63
I127
tp213
a(F114159202.69999999
F114273488.43333334
I64
I125
tp214
a(F114671447.68333334
F114806141.58333334
I62
I127
tp215
a(F114904100.78333333
F115016345.69999999
I63
I127
tp216
a(F115053080.4
F115181651.85
I64
I122
tp217
a(F115289815.13333333
F115387774.33333334
I63
I127
tp218
a(F115406141.68333334
F115520427.41666666
I62
I118
tp219
a(F115675529.48333332
F117408182.83333334
I67
I127
tp220
asS'bpm'
p221
F244.99995916667348
sS'meter'
p222
(ijazzr.rhythm.meter
Meter
p223
(dp224
S'beatspb'
p225
F4.0
sS'beatdiv'
p226
F4.0
sbsg55
(lp227
(F4.0
I1
I0
I1
tp228
a(F6.666666666666667
I0
I62
I5
tp229
a(F7.666666666666667
I1
I71
I5
tp230
a(F17.0
I2
I74
I0
tp231
a(F18.0
I3
I74
I0
tp232
a(F19.0
I4
I71
I0
tp233
a(F20.0
I5
I71
I0
tp234
a(F21.0
I6
I69
I0
tp235
a(F22.0
I7
I69
I0
tp236
a(F23.0
I8
I67
I5
tp237
a(F23.666666666666668
I9
I69
I5
tp238
a(F33.0
I10
I74
I0
tp239
a(F34.0
I11
I74
I0
tp240
a(F35.0
I12
I71
I0
tp241
a(F36.0
I13
I71
I0
tp242
a(F37.0
I14
I69
I0
tp243
a(F38.0
I15
I69
I5
tp244
a(F38.666666666666664
I16
I67
I5
tp245
a(F39.666666666666664
I17
I69
I5
tp246
a(F49.0
I18
I74
I0
tp247
a(F50.0
I19
I74
I5
tp248
a(F50.666666666666664
I20
I71
I5
tp249
a(F52.0
I21
I71
I0
tp250
a(F53.0
I22
I69
I0
tp251
a(F54.0
I23
I69
I0
tp252
a(F55.0
I24
I67
I0
tp253
a(F56.0
I25
I71
I0
tp254
a(F62.0
I26
I66
I0
tp255
a(F63.666666666666664
I27
I64
I5
tp256
a(F70.0
I28
I66
I0
tp257
a(F72.0
I29
I71
I0
tp258
a(F74.0
I30
I71
I0
tp259
a(F76.0
I31
I70
I0
tp260
a(F78.0
I32
I69
I0
tp261
a(F80.0
I33
I74
I0
tp262
a(F89.0
I34
I74
I0
tp263
a(F90.0
I35
I74
I0
tp264
a(F91.0
I36
I73
I0
tp265
a(F92.0
I37
I72
I5
tp266
a(F92.66666666666667
I38
I71
I5
tp267
a(F94.0
I39
I70
I0
tp268
a(F95.0
I40
I71
I5
tp269
a(F95.66666666666667
I41
I74
I5
tp270
a(F105.0
I42
I74
I0
tp271
a(F106.0
I43
I74
I5
tp272
a(F106.66666666666667
I44
I73
I5
tp273
a(F107.66666666666667
I45
I72
I5
tp274
a(F108.66666666666667
I46
I71
I5
tp275
a(F109.66666666666667
I47
I70
I5
tp276
a(F110.66666666666667
I48
I71
I5
tp277
a(F112.0
I49
I74
I0
tp278
a(F120.66666666666667
I50
I74
I5
tp279
a(F121.66666666666667
I51
I74
I5
tp280
a(F122.66666666666667
I52
I73
I5
tp281
a(F123.66666666666667
I53
I72
I5
tp282
a(F124.66666666666667
I54
I71
I5
tp283
a(F126.0
I55
I70
I0
tp284
a(F127.0
I56
I71
I0
tp285
a(F128.0
I57
I72
I0
tp286
a(F144.0
I58
I72
I0
tp287
a(F152.66666666666666
I59
I72
I5
tp288
a(F153.66666666666666
I60
I72
I5
tp289
a(F154.66666666666666
I61
I71
I5
tp290
a(F155.66666666666666
I62
I71
I5
tp291
a(F156.66666666666666
I63
I69
I5
tp292
a(F158.0
I64
I67
I5
tp293
a(F158.66666666666666
I65
I66
I5
tp294
a(F160.0
I66
I69
I0
tp295
a(F169.0
I67
I67
I0
tp296
a(F170.0
I68
I69
I0
tp297
a(F171.0
I69
I71
I0
tp298
a(F172.0
I70
I74
I0
tp299
a(F173.66666666666666
I71
I71
I5
tp300
a(F174.66666666666666
I72
I67
I5
tp301
a(F176.0
I73
I67
I0
tp302
a(F184.0
I74
I69
I0
tp303
a(F185.66666666666666
I75
I69
I5
tp304
a(F186.66666666666666
I76
I69
I5
tp305
a(F188.0
I77
I69
I0
tp306
a(F190.0
I78
I67
I0
tp307
a(F192.0
I79
I71
I0
tp308
a(F198.0
I80
I66
I0
tp309
a(F199.66666666666666
I81
I64
I5
tp310
a(F206.0
I82
I66
I0
tp311
a(F207.66666666666666
I83
I71
I5
tp312
a(F214.0
I84
I66
I0
tp313
a(F215.66666666666666
I85
I64
I5
tp314
a(F221.66666666666666
I86
I66
I5
tp315
a(F222.0
I87
I69
I5
tp316
a(F222.66666666666666
I88
I67
I5
tp317
a(F223.0
I89
I66
I5
tp318
a(F223.66666666666666
I90
I64
I5
tp319
a(F224.0
I91
I62
I0
tp320
a(F225.0
I92
I63
I0
tp321
a(F226.0
I93
I64
I0
tp322
a(F228.0
I94
I62
I0
tp323
a(F229.0
I95
I63
I5
tp324
a(F229.66666666666666
I96
I64
I5
tp325
a(F230.66666666666666
I97
I64
I5
tp326
a(F231.0
I98
I63
I0
tp327
a(F232.0
I99
I62
I0
tp328
a(F233.0
I100
I63
I0
tp329
a(F234.0
I101
I64
I0
tp330
a(F236.0
I102
I62
I0
tp331
a(F237.0
I103
I63
I5
tp332
a(F237.66666666666666
I104
I64
I5
tp333
a(F238.66666666666666
I105
I62
I5
tp334
a(F239.66666666666666
I106
I71
I5
tp335
a(F240.0
I107
I0
I4
tp336
asS'metadata'
p337
(dp338
S'beatdiv'
p339
F4.0
sS'bpm'
p340
F244.99995916667348
sS'beatspb'
p341
F4.0
sS'name'
p342
S'brazil-3-10'
p343
sS'offset'
p344
F0.0
ssbsS'beats'
p345
(lp346
sS'previous'
p347
F31.0
sbasg16
F7.223732377880706e-41
sg17
I1
sg18
F7.223732377880706e-41
sg19
I7
sg20
(F0.0
F779591.966666667
tp348
sg22
F64.0
sg23
I2
sg24
(lp349
g0
(g1
g2
Ntp350
Rp351
(dp352
g6
(lp353
I3
aI2
aI2
aI2
aI2
aI2
asg8
(F0.0
(I0
F0.0
F32.0
tp354
tp355
sg11
(lp356
F779591.966666667
aF4918368.166666666
asg13
F1.0
sg14
(lp357
Nag0
(g44
g2
Ntp358
Rp359
(dp360
g48
F16.0
sg11
g49
sg8
(lp361
sg51
I6
sg13
Nsg14
g52
sg24
Nsg22
Nsg6
g53
sg18
F1.0
sg19
I0
sg20
Nsg54
F17.0
sg23
I0
sg55
g56
sg345
g346
sg347
F15.0
sbasg16
F4.401670302018283e-20
sg17
I1
sg18
F4.401670302018283e-20
sg19
I6
sg20
(F0.0
F779591.966666667
tp362
sg22
F32.0
sg23
I2
sg24
(lp363
g0
(g1
g2
Ntp364
Rp365
(dp366
g6
(lp367
I3
aI2
aI2
aI2
aI2
asg8
(F0.0
(I0
F0.0
F16.0
tp368
tp369
sg11
(lp370
F779591.966666667
aF2908163.7499999925
asg13
F1.0
sg14
(lp371
NaNasg16
F4.739413105174543e-10
sg17
I1
sg18
F4.739413105174543e-10
sg19
I5
sg20
(F0.0
F779591.966666667
tp372
sg22
F16.0
sg23
I2
sg24
(lp373
g0
(g1
g2
Ntp374
Rp375
(dp376
g6
(lp377
I3
aI2
aI2
aI2
asg8
(F0.0
(I0
F0.0
F13.0
tp378
tp379
sg11
(lp380
F779591.966666667
aF2053061.5666666667
asg13
F1.0
sg14
(lp381
NaNasg16
F2.811052299312258e-05
sg17
I1
sg18
F2.811052299312258e-05
sg19
I4
sg20
(F0.0
F779591.966666667
tp382
sg22
F8.0
sg23
I2
sg24
(lp383
g0
(g1
g2
Ntp384
Rp385
(dp386
g6
(lp387
I3
aI2
aI2
asg8
(F0.5
(I0
I2
F13.0
tp388
tp389
sg11
(lp390
F779591.966666667
aF1416326.7666666668
asg13
F1.0
sg14
(lp391
NaNasg16
F0.0005015598769197144
sg17
I1
sg18
F0.0005015598769197144
sg19
I3
sg20
(F0.5
F1416326.7666666668
tp392
sg22
F4.0
sg23
I2
sg24
(lp393
g0
(cjazzr.rhythm.symbol
Tie
p394
g2
Ntp395
Rp396
(dp397
g6
g53
sg8
(lp398
sg11
g49
sg13
Nsg14
g52
sg19
I0
sg18
F1.0
sg22
Nsg20
Nsg23
I1
sg24
Nsg345
g346
sbag0
(g1
g2
Ntp399
Rp400
(dp401
g6
(lp402
I3
aI2
asg8
(F0.0
(I0
I2
F13.0
tp403
tp404
sg11
(lp405
F1416326.7666666668
aF1734694.1666666667
asg13
F1.0
sg14
(lp406
NaNasg16
F0.0072738535844908345
sg17
I1
sg18
F0.0072738535844908345
sg19
I2
sg20
(F0.3333333333333333
F1628571.7000000002
tp407
sg22
I2
sg23
I2
sg24
(lp408
g0
(g1
g2
Ntp409
Rp410
(dp411
g6
(lp412
I3
asg8
(F0.0
(I0
I2
F3.666666666666667
tp413
tp414
sg11
(lp415
NaNaF1628571.7000000002
asg13
F1.0
sg14
(lp416
NaNag0
(g44
g2
Ntp417
Rp418
(dp419
g48
F2.666666666666667
sg11
g49
sg8
(lp420
sg51
I1
sg13
Nsg14
g52
sg24
Nsg22
Nsg6
g53
sg18
F1.0
sg19
I0
sg20
Nsg54
F3.666666666666667
sg23
I0
sg55
g56
sg345
g346
sg347
I0
sbasg16
F0.1358695652173913
sg17
I1
sg18
F0.1358695652173913
sg19
I1
sg20
(F0.6666666666666666
F1628571.7000000002
tp421
sg22
F1.0000000000000004
sg23
I2
sg24
(lp422
g0
(g394
g2
Ntp423
Rp424
(dp425
g6
g53
sg8
(lp426
sg11
g49
sg13
Nsg14
g52
sg19
I0
sg18
F1.0
sg22
Nsg20
Nsg23
I1
sg24
Nsg345
g346
sbag0
(g394
g2
Ntp427
Rp428
(dp429
g6
g53
sg8
(lp430
sg11
g49
sg13
Nsg14
g52
sg19
I0
sg18
F1.0
sg22
Nsg20
Nsg23
I1
sg24
Nsg345
g346
sbag418
asg345
(lp431
I2
aF2.3333333333333335
aF2.666666666666667
asbag0
(g1
g2
Ntp432
Rp433
(dp434
g6
(lp435
I3
asg8
(F0.0
(F2.666666666666667
I3
F13.0
tp436
tp437
sg11
(lp438
NaNaF1946939.1
asg13
F1.0
sg14
(lp439
NaNag0
(g44
g2
Ntp440
Rp441
(dp442
g48
F3.666666666666667
sg11
g49
sg8
(lp443
sg51
I2
sg13
Nsg14
g52
sg24
Nsg22
Nsg6
g53
sg18
F1.0
sg19
I0
sg20
Nsg54
F13.0
sg23
I0
sg55
g56
sg345
g346
sg347
F2.666666666666667
sbasg16
F0.1358695652173913
sg17
I1
sg18
F0.1358695652173913
sg19
I1
sg20
(F0.6666666666666666
F1946939.1
tp444
sg22
F1.0000000000000004
sg23
I2
sg24
(lp445
g0
(g394
g2
Ntp446
Rp447
(dp448
g6
g53
sg8
(lp449
sg11
g49
sg13
Nsg14
g52
sg19
I0
sg18
F1.0
sg22
Nsg20
Nsg23
I1
sg24
Nsg345
g346
sbag0
(g394
g2
Ntp450
Rp451
(dp452
g6
g53
sg8
(lp453
sg11
g49
sg13
Nsg14
g52
sg19
I0
sg18
F1.0
sg22
Nsg20
Nsg23
I1
sg24
Nsg345
g346
sbag441
asg345
(lp454
I3
aF3.3333333333333335
aF3.666666666666667
asbasg345
(lp455
I2
aI3
asbasg345
(lp456
F0.0
aI2
asbag0
(g394
g2
Ntp457
Rp458
(dp459
g6
g53
sg8
(lp460
sg11
g49
sg13
Nsg14
g52
sg19
I0
sg18
F1.0
sg22
Nsg20
Nsg23
I1
sg24
Nsg345
g346
sbasg345
(lp461
F0.0
aF4.0
asbag0
(g1
g2
Ntp462
Rp463
(dp464
g6
(lp465
I2
aI2
aI2
asg8
(F0.5
(F3.666666666666667
F12.0
F16.0
tp466
tp467
sg11
(lp468
F2908163.7499999925
aF3912245.549999997
asg13
F1.0
sg14
(lp469
NaNasg16
F4.278932699971314e-05
sg17
I1
sg18
F4.278932699971314e-05
sg19
I3
sg20
(F0.5
F3912245.549999997
tp470
sg22
F8.0
sg23
I2
sg24
(lp471
g0
(g394
g2
Ntp472
Rp473
(dp474
g6
g53
sg8
(lp475
sg11
g49
sg13
Nsg14
g52
sg19
I0
sg18
F1.0
sg22
Nsg20
Nsg23
I1
sg24
Nsg345
g346
sbag0
(g1
g2
Ntp476
Rp477
(dp478
g6
(lp479
I2
aI2
asg8
(F0.5
(F3.666666666666667
F14.0
F16.0
tp480
tp481
sg11
(lp482
F3912245.549999997
aF4414286.449999999
asg13
F1.0
sg14
(lp483
Nag0
(g44
g2
Ntp484
Rp485
(dp486
g48
F14.0
sg11
g49
sg8
(lp487
sg51
I4
sg13
Nsg14
g52
sg24
Nsg22
Nsg6
g53
sg18
F1.0
sg19
I0
sg20
Nsg54
F15.0
sg23
I0
sg55
g56
sg345
g346
sg347
F13.0
sbasg16
F0.0006205506339268744
sg17
I1
sg18
F0.0006205506339268744
sg19
I2
sg20
(F0.5
F4414286.449999999
tp488
sg22
F4.0
sg23
I2
sg24
(lp489
g0
(g1
g2
Ntp490
Rp491
(dp492
g6
(lp493
I2
asg8
(F0.5
(F3.666666666666667
F13.0
F14.0
tp494
tp495
sg11
(lp496
NaF4165306.8166666664
asg13
F1.0
sg14
(lp497
Nag0
(g44
g2
Ntp498
Rp499
(dp500
g48
F13.0
sg11
g49
sg8
(lp501
sg51
I3
sg13
Nsg14
g52
sg24
Nsg22
Nsg6
g53
sg18
F1.0
sg19
I0
sg20
Nsg54
F14.0
sg23
I0
sg55
g56
sg345
g346
sg347
F3.666666666666667
sbasg16
F0.025475543478260868
sg17
I1
sg18
F0.025475543478260868
sg19
I1
sg20
(F0.5
F4165306.8166666664
tp502
sg22
Nsg23
I2
sg24
(lp503
g0
(g394
g2
Ntp504
Rp505
(dp506
g6
g53
sg8
(lp507
sg11
g49
sg13
Nsg14
g52
sg19
I0
sg18
F1.0
sg22
Nsg20
Nsg23
I1
sg24
Nsg345
g346
sbag499
asg345
(lp508
NaF13.0
asbag0
(g1
g2
Ntp509
Rp510
(dp511
g6
(lp512
I2
asg8
(F0.0
(F13.0
F14.0
F16.0
tp513
tp514
sg11
(lp515
F4414286.449999999
aF4665306.9
asg13
F1.0
sg14
(lp516
g485
ag0
(g44
g2
Ntp517
Rp518
(dp519
g48
F15.0
sg11
g49
sg8
(lp520
sg51
I5
sg13
Nsg14
g52
sg24
Nsg22
Nsg6
g53
sg18
F1.0
sg19
I0
sg20
Nsg54
F16.0
sg23
I0
sg55
g56
sg345
g346
sg347
F14.0
sbasg16
F0.06182065217391304
sg17
I1
sg18
F0.06182065217391304
sg19
I1
sg20
(F0.0
F4414286.449999999
tp521
sg22
F2.0
sg23
I2
sg24
(lp522
g485
ag518
asg345
(lp523
F14.0
aF15.0
asbasg345
(lp524
F12.0
aF14.0
asbasg345
(lp525
F8.0
aF12.0
asbasg345
(lp526
F0.0
aF8.0
asbag0
(g1
g2
Ntp527
Rp528
(dp529
g6
(lp530
I3
aI2
aI2
aI2
aI2
asg8
(F0.0
(F15.0
F16.0
F32.0
tp531
tp532
sg11
(lp533
F4918368.166666666
aF6836735.833333336
asg13
F1.0
sg14
(lp534
g359
aNasg16
F2.357071522390933e-10
sg17
I1
sg18
F2.357071522390933e-10
sg19
I5
sg20
(F0.0
F4918368.166666666
tp535
sg22
F16.0
sg23
I2
sg24
(lp536
g0
(g1
g2
Ntp537
Rp538
(dp539
g6
(lp540
I3
aI2
aI2
aI2
asg8
(F0.0
(F15.0
F16.0
F29.0
tp541
tp542
sg11
(lp543
F4918368.166666666
aF5946939.766666668
asg13
F1.0
sg14
(lp544
g359
aNasg16
F1.3980320296254195e-05
sg17
I1
sg18
F1.3980320296254195e-05
sg19
I4
sg20
(F0.0
F4918368.166666666
tp545
sg22
F8.0
sg23
I2
sg24
(lp546
g0
(g1
g2
Ntp547
Rp548
(dp549
g6
(lp550
I3
aI2
aI2
asg8
(F0.0
(F15.0
F16.0
F29.0
tp551
tp552
sg11
(lp553
F4918368.166666666
aF5432653.966666667
asg13
F1.0
sg14
(lp554
g359
ag0
(g44
g2
Ntp555
Rp556
(dp557
g48
F18.0
sg11
g49
sg8
(lp558
sg51
I8
sg13
Nsg14
g52
sg24
Nsg22
Nsg6
g53
sg18
F1.0
sg19
I0
sg20
Nsg54
F19.0
sg23
I0
sg55
g56
sg345
g346
sg347
F17.0
sbasg16
F0.0002494428057707415
sg17
I1
sg18
F0.0002494428057707415
sg19
I3
sg20
(F0.0
F4918368.166666666
tp559
sg22
F4.0
sg23
I2
sg24
(lp560
g0
(g1
g2
Ntp561
Rp562
(dp563
g6
(lp564
I2
asg8
(F0.0
(F15.0
F16.0
F18.0
tp565
tp566
sg11
(lp567
F4918368.166666666
aF5177551.883333333
asg13
F1.0
sg14
(lp568
g359
ag0
(g44
g2
Ntp569
Rp570
(dp571
g48
F17.0
sg11
g49
sg8
(lp572
sg51
I7
sg13
Nsg14
g52
sg24
Nsg22
Nsg6
g53
sg18
F1.0
sg19
I0
sg20
Nsg54
F18.0
sg23
I0
sg55
g56
sg345
g346
sg347
F16.0
sbasg16
F0.06182065217391304
sg17
I1
sg18
F0.06182065217391304
sg19
I1
sg20
(F0.0
F4918368.166666666
tp573
sg22
F2.0
sg23
I2
sg24
(lp574
g359
ag570
asg345
(lp575
F16.0
aF17.0
asbag0
(g1
g2
Ntp576
Rp577
(dp578
g6
(lp579
I3
aI2
asg8
(F0.0
(F17.0
F18.0
F29.0
tp580
tp581
sg11
(lp582
F5432653.966666667
aF5655102.983333332
asg13
F1.0
sg14
(lp583
g556
ag0
(g44
g2
Ntp584
Rp585
(dp586
g48
F19.0
sg11
g49
sg8
(lp587
sg51
I9
sg13
Nsg14
g52
sg24
Nsg22
Nsg6
g53
sg18
F1.0
sg19
I0
sg20
Nsg54
F19.666666666666668
sg23
I0
sg55
g56
sg345
g346
sg347
F18.0
sbasg16
F0.010240406981037333
sg17
I1
sg18
F0.010240406981037333
sg19
I2
sg20
(F0.0
F5432653.966666667
tp588
sg22
F2.0
sg23
I2
sg24
(lp589
g556
ag0
(g1
g2
Ntp590
Rp591
(dp592
g6
(lp593
I3
asg8
(F0.0
(F18.0
F19.0
F29.0
tp594
tp595
sg11
(lp596
F5655102.983333332
aF5729592.791666666
aF5804082.6
asg13
F1.0
sg14
(lp597
g585
aNag0
(g44
g2
Ntp598
Rp599
(dp600
g48
F19.666666666666668
sg11
g49
sg8
(lp601
sg51
I10
sg13
Nsg14
g52
sg24
Nsg22
Nsg6
g53
sg18
F1.0
sg19
I0
sg20
Nsg54
F29.0
sg23
I0
sg55
g56
sg345
g346
sg347
F19.0
sbasg16
F0.16474184782608695
sg17
I1
sg18
F0.16474184782608695
sg19
I1
sg20
(F0.0
F5655102.983333332
tp602
sg22
F1.000000000000007
sg23
I2
sg24
(lp603
g585
ag0
(g394
g2
Ntp604
Rp605
(dp606
g6
g53
sg8
(lp607
sg11
g49
sg13
Nsg14
g52
sg19
I0
sg18
F1.0
sg22
Nsg20
Nsg23
I1
sg24
Nsg345
g346
sbag599
asg345
(lp608
F19.0
aF19.333333333333336
aF19.666666666666668
asbasg345
(lp609
F18.0
aF19.0
asbasg345
(lp610
F16.0
aF18.0
asbag0
(g394
g2
Ntp611
Rp612
(dp613
g6
g53
sg8
(lp614
sg11
g49
sg13
Nsg14
g52
sg19
I0
sg18
F1.0
sg22
Nsg20
Nsg23
I1
sg24
Nsg345
g346
sbasg345
(lp615
F16.0
aF20.0
asbag0
(g1
g2
Ntp616
Rp617
(dp618
g6
(lp619
I2
aI2
aI2
asg8
(F0.5
(F19.666666666666668
F28.0
F32.0
tp620
tp621
sg11
(lp622
F6836735.833333336
aF7832654.366666667
asg13
F1.0
sg14
(lp623
NaNasg16
F4.278932699971314e-05
sg17
I1
sg18
F4.278932699971314e-05
sg19
I3
sg20
(F0.5
F7832654.366666667
tp624
sg22
F8.0
sg23
I2
sg24
(lp625
g0
(g394
g2
Ntp626
Rp627
(dp628
g6
g53
sg8
(lp629
sg11
g49
sg13
Nsg14
g52
sg19
I0
sg18
F1.0
sg22
Nsg20
Nsg23
I1
sg24
Nsg345
g346
sbag0
(g1
g2
Ntp630
Rp631
(dp632
g6
(lp633
I2
aI2
asg8
(F0.5
(F19.666666666666668
F30.0
F32.0
tp634
tp635
sg11
(lp636
F7832654.366666667
aF8330613.633333333
asg13
F1.0
sg14
(lp637
Nag0
(g44
g2
Ntp638
Rp639
(dp640
g48
F30.0
sg11
g49
sg8
(lp641
sg51
I12
sg13
Nsg14
g52
sg24
Nsg22
Nsg6
g53
sg18
F1.0
sg19
I0
sg20
Nsg54
F31.0
sg23
I0
sg55
g56
sg345
g346
sg347
F29.0
sbasg16
F0.0006205506339268744
sg17
I1
sg18
F0.0006205506339268744
sg19
I2
sg20
(F0.5
F8330613.633333333
tp642
sg22
F4.0
sg23
I2
sg24
(lp643
g0
(g1
g2
Ntp644
Rp645
(dp646
g6
(lp647
I2
asg8
(F0.5
(F19.666666666666668
F29.0
F30.0
tp648
tp649
sg11
(lp650
NaF8093878.899999999
asg13
F1.0
sg14
(lp651
Nag0
(g44
g2
Ntp652
Rp653
(dp654
g48
F29.0
sg11
g49
sg8
(lp655
sg51
I11
sg13
Nsg14
g52
sg24
Nsg22
Nsg6
g53
sg18
F1.0
sg19
I0
sg20
Nsg54
F30.0
sg23
I0
sg55
g56
sg345
g346
sg347
F19.666666666666668
sbasg16
F0.025475543478260868
sg17
I1
sg18
F0.025475543478260868
sg19
I1
sg20
(F0.5
F8093878.899999999
tp656
sg22
Nsg23
I2
sg24
(lp657
g0
(g394
g2
Ntp658
Rp659
(dp660
g6
g53
sg8
(lp661
sg11
g49
sg13
Nsg14
g52
sg19
I0
sg18
F1.0
sg22
Nsg20
Nsg23
I1
sg24
Nsg345
g346
sbag653
asg345
(lp662
NaF29.0
asbag0
(g1
g2
Ntp663
Rp664
(dp665
g6
(lp666
I2
asg8
(F0.0
(F29.0
F30.0
F32.0
tp667
tp668
sg11
(lp669
F8330613.633333333
aF8579593.266666666
asg13
F1.0
sg14
(lp670
g639
ag0
(g44
g2
Ntp671
Rp672
(dp673
g48
F31.0
sg11
g49
sg8
(lp674
sg51
I13
sg13
Nsg14
g52
sg24
Nsg22
Nsg6
g53
sg18
F1.0
sg19
I0
sg20
Nsg54
F32.0
sg23
I0
sg55
g56
sg345
g346
sg347
F30.0
sbasg16
F0.06182065217391304
sg17
I1
sg18
F0.06182065217391304
sg19
I1
sg20
(F0.0
F8330613.633333333
tp675
sg22
F2.0
sg23
I2
sg24
(lp676
g639
ag672
asg345
(lp677
F30.0
aF31.0
asbasg345
(lp678
F28.0
aF30.0
asbasg345
(lp679
F24.0
aF28.0
asbasg345
(lp680
F16.0
aF24.0
asbasg345
(lp681
F0.0
aF16.0
asbag0
(g1
g2
Ntp682
Rp683
(dp684
g6
(lp685
I3
aI2
aI2
aI2
aI2
aI2
asg8
(F0.0
(F31.0
F32.0
F66.0
tp686
tp687
sg11
(lp688
F8830613.716666665
aF12744900.083333332
asg13
F1.0
sg14
(lp689
g46
ag0
(g44
g2
Ntp690
Rp691
(dp692
g48
F48.0
sg11
g49
sg8
(lp693
sg51
I22
sg13
Nsg14
g52
sg24
Nsg22
Nsg6
g53
sg18
F1.0
sg19
I0
sg20
Nsg54
F49.0
sg23
I0
sg55
g56
sg345
g346
sg347
F46.666666666666664
sbasg16
F4.165085826218074e-21
sg17
I1
sg18
F4.165085826218074e-21
sg19
I6
sg20
(F0.0
F8830613.716666665
tp694
sg22
F32.0
sg23
I2
sg24
(lp695
g0
(g1
g2
Ntp696
Rp697
(dp698
g6
(lp699
I3
aI2
aI2
aI2
aI2
asg8
(F0.0
(F31.0
F32.0
F48.0
tp700
tp701
sg11
(lp702
F8830613.716666665
aF10114287.399999991
asg13
F1.0
sg14
(lp703
g46
aNasg16
F3.0319241700516345e-11
sg17
I1
sg18
F3.0319241700516345e-11
sg19
I5
sg20
(F0.0
F8830613.716666665
tp704
sg22
F16.00000000000017
sg23
I2
sg24
(lp705
g0
(g1
g2
Ntp706
Rp707
(dp708
g6
(lp709
I3
aI2
aI2
aI2
asg8
(F0.0
(F31.0
F32.0
F45.0
tp710
tp711
sg11
(lp712
F8830613.716666665
aF9814287.350000005
asg13
F1.0
sg14
(lp713
g46
aNasg16
F1.2040546703236269e-05
sg17
I1
sg18
F1.2040546703236269e-05
sg19
I4
sg20
(F0.0
F8830613.716666665
tp714
sg22
F8.0
sg23
I2
sg24
(lp715
g0
(g1
g2
Ntp716
Rp717
(dp718
g6
(lp719
I3
aI2
aI2
asg8
(F0.0
(F31.0
F32.0
F45.0
tp720
tp721
sg11
(lp722
F8830613.716666665
aF9322450.533333335
asg13
F1.0
sg14
(lp723
g46
ag0
(g44
g2
Ntp724
Rp725
(dp726
g48
F34.0
sg11
g49
sg8
(lp727
sg51
I16
sg13
Nsg14
g52
sg24
Nsg22
Nsg6
g53
sg18
F1.0
sg19
I0
sg20
Nsg54
F34.666666666666664
sg23
I0
sg55
g56
sg345
g346
sg347
F33.0
sbasg16
F0.0002148325423898641
sg17
I1
sg18
F0.0002148325423898641
sg19
I3
sg20
(F0.0
F8830613.716666665
tp728
sg22
F4.0
sg23
I2
sg24
(lp729
g0
(g1
g2
Ntp730
Rp731
(dp732
g6
(lp733
I2
asg8
(F0.0
(F31.0
F32.0
F34.0
tp734
tp735
sg11
(lp736
F8830613.716666665
aF9071430.083333332
asg13
F1.0
sg14
(lp737
g46
ag0
(g44
g2
Ntp738
Rp739
(dp740
g48
F33.0
sg11
g49
sg8
(lp741
sg51
I15
sg13
Nsg14
g52
sg24
Nsg22
Nsg6
g53
sg18
F1.0
sg19
I0
sg20
Nsg54
F34.0
sg23
I0
sg55
g56
sg345
g346
sg347
F32.0
sbasg16
F0.06182065217391304
sg17
I1
sg18
F0.06182065217391304
sg19
I1
sg20
(F0.0
F8830613.716666665
tp742
sg22
F2.0
sg23
I2
sg24
(lp743
g46
ag739
asg345
(lp744
F32.0
aF33.0
asbag0
(g1
g2
Ntp745
Rp746
(dp747
g6
(lp748
I3
aI2
asg8
(F0.0
(F33.0
F34.0
F45.0
tp749
tp750
sg11
(lp751
F9322450.533333335
aF9662246.508333333
asg13
F1.0
sg14
(lp752
g725
aNasg16
F0.008819547471195137
sg17
I1
sg18
F0.008819547471195137
sg19
I2
sg20
(F0.0
F9322450.533333335
tp753
sg22
F2.0
sg23
I2
sg24
(lp754
g0
(g1
g2
Ntp755
Rp756
(dp757
g6
(lp758
I3
asg8
(F0.0
(F33.0
F34.0
F35.666666666666664
tp759
tp760
sg11
(lp761
F9322450.533333335
aF9435715.858333334
aF9548981.183333334
asg13
F1.0
sg14
(lp762
g725
aNag0
(g44
g2
Ntp763
Rp764
(dp765
g48
F34.666666666666664
sg11
g49
sg8
(lp766
sg51
I17
sg13
Nsg14
g52
sg24
Nsg22
Nsg6
g53
sg18
F1.0
sg19
I0
sg20
Nsg54
F35.666666666666664
sg23
I0
sg55
g56
sg345
g346
sg347
F34.0
sbasg16
F0.16474184782608695
sg17
I1
sg18
F0.16474184782608695
sg19
I1
sg20
(F0.0
F9322450.533333335
tp767
sg22
F0.9999999999999858
sg23
I2
sg24
(lp768
g725
ag0
(g394
g2
Ntp769
Rp770
(dp771
g6
g53
sg8
(lp772
sg11
g49
sg13
Nsg14
g52
sg19
I0
sg18
F1.0
sg22
Nsg20
Nsg23
I1
sg24
Nsg345
g346
sbag764
asg345
(lp773
F34.0
aF34.33333333333333
aF34.666666666666664
asbag0
(g1
g2
Ntp774
Rp775
(dp776
g6
(lp777
I3
asg8
(F0.0
(F34.666666666666664
I35
F45.0
tp778
tp779
sg11
(lp780
NaNaF9708164.883333333
asg13
F1.0
sg14
(lp781
NaNag0
(g44
g2
Ntp782
Rp783
(dp784
g48
F35.666666666666664
sg11
g49
sg8
(lp785
sg51
I18
sg13
Nsg14
g52
sg24
Nsg22
Nsg6
g53
sg18
F1.0
sg19
I0
sg20
Nsg54
F45.0
sg23
I0
sg55
g56
sg345
g346
sg347
F34.666666666666664
sbasg16
F0.1358695652173913
sg17
I1
sg18
F0.1358695652173913
sg19
I1
sg20
(F0.6666666666666666
F9708164.883333333
tp786
sg22
F0.9999999999999858
sg23
I2
sg24
(lp787
g0
(g394
g2
Ntp788
Rp789
(dp790
g6
g53
sg8
(lp791
sg11
g49
sg13
Nsg14
g52
sg19
I0
sg18
F1.0
sg22
Nsg20
Nsg23
I1
sg24
Nsg345
g346
sbag0
(g394
g2
Ntp792
Rp793
(dp794
g6
g53
sg8
(lp795
sg11
g49
sg13
Nsg14
g52
sg19
I0
sg18
F1.0
sg22
Nsg20
Nsg23
I1
sg24
Nsg345
g346
sbag783
asg345
(lp796
I35
aF35.33333333333333
aF35.666666666666664
asbasg345
(lp797
F34.0
aI35
asbasg345
(lp798
F32.0
aF34.0
asbag0
(g394
g2
Ntp799
Rp800
(dp801
g6
g53
sg8
(lp802
sg11
g49
sg13
Nsg14
g52
sg19
I0
sg18
F1.0
sg22
Nsg20
Nsg23
I1
sg24
Nsg345
g346
sbasg345
(lp803
F32.0
aF36.0
asbag0
(g1
g2
Ntp804
Rp805
(dp806
g6
(lp807
I3
aI2
aI2
aI2
asg8
(F0.5
(F35.666666666666664
F44.00000000000003
F48.0
tp808
tp809
sg11
(lp810
F10114287.399999991
aF11534695.799999997
asg13
F1.0
sg14
(lp811
NaNasg16
F6.390751711717713e-06
sg17
I1
sg18
F6.390751711717713e-06
sg19
I4
sg20
(F0.5
F11534695.799999997
tp812
sg22
F7.999999999999886
sg23
I2
sg24
(lp813
g0
(g394
g2
Ntp814
Rp815
(dp816
g6
g53
sg8
(lp817
sg11
g49
sg13
Nsg14
g52
sg19
I0
sg18
F1.0
sg22
Nsg20
Nsg23
I1
sg24
Nsg345
g346
sbag0
(g1
g2
Ntp818
Rp819
(dp820
g6
(lp821
I3
aI2
aI2
asg8
(F0.5
(F35.666666666666664
F46.0
F48.0
tp822
tp823
sg11
(lp824
F11534695.799999997
aF12244900.0
asg13
F1.0
sg14
(lp825
Nag0
(g44
g2
Ntp826
Rp827
(dp828
g48
F46.0
sg11
g49
sg8
(lp829
sg51
I20
sg13
Nsg14
g52
sg24
Nsg22
Nsg6
g53
sg18
F1.0
sg19
I0
sg20
Nsg54
F46.666666666666664
sg23
I0
sg55
g56
sg345
g346
sg347
F45.0
sbasg16
F9.268164058766969e-05
sg17
I1
sg18
F9.268164058766969e-05
sg19
I3
sg20
(F0.5
F12244900.0
tp830
sg22
F3.999999999999943
sg23
I2
sg24
(lp831
g0
(g1
g2
Ntp832
Rp833
(dp834
g6
(lp835
I2
asg8
(F0.5
(F35.666666666666664
F45.0
F46.0
tp836
tp837
sg11
(lp838
NaF12006124.45
asg13
F1.0
sg14
(lp839
Nag0
(g44
g2
Ntp840
Rp841
(dp842
g48
F45.0
sg11
g49
sg8
(lp843
sg51
I19
sg13
Nsg14
g52
sg24
Nsg22
Nsg6
g53
sg18
F1.0
sg19
I0
sg20
Nsg54
F46.0
sg23
I0
sg55
g56
sg345
g346
sg347
F35.666666666666664
sbasg16
F0.025475543478260868
sg17
I1
sg18
F0.025475543478260868
sg19
I1
sg20
(F0.5
F12006124.45
tp844
sg22
Nsg23
I2
sg24
(lp845
g0
(g394
g2
Ntp846
Rp847
(dp848
g6
g53
sg8
(lp849
sg11
g49
sg13
Nsg14
g52
sg19
I0
sg18
F1.0
sg22
Nsg20
Nsg23
I1
sg24
Nsg345
g346
sbag841
asg345
(lp850
NaF45.0
asbag0
(g1
g2
Ntp851
Rp852
(dp853
g6
(lp854
I3
aI2
asg8
(F0.0
(F45.0
F46.0
F48.0
tp855
tp856
sg11
(lp857
F12244900.0
aF12600002.100000001
asg13
F1.0
sg14
(lp858
g827
aNasg16
F0.00923315383536153
sg17
I1
sg18
F0.00923315383536153
sg19
I2
sg20
(F0.0
F12244900.0
tp859
sg22
F1.9999999999999716
sg23
I2
sg24
(lp860
g0
(g1
g2
Ntp861
Rp862
(dp863
g6
(lp864
I3
asg8
(F0.0
(F45.0
F46.0
F48.0
tp865
tp866
sg11
(lp867
F12244900.0
aF12363267.366666667
aF12481634.733333334
asg13
F1.0
sg14
(lp868
g827
aNag0
(g44
g2
Ntp869
Rp870
(dp871
g48
F46.666666666666664
sg11
g49
sg8
(lp872
sg51
I21
sg13
Nsg14
g52
sg24
Nsg22
Nsg6
g53
sg18
F1.0
sg19
I0
sg20
Nsg54
F48.0
sg23
I0
sg55
g56
sg345
g346
sg347
F46.0
sbasg16
F0.16474184782608695
sg17
I1
sg18
F0.16474184782608695
sg19
I1
sg20
(F0.0
F12244900.0
tp873
sg22
F0.9999999999999858
sg23
I2
sg24
(lp874
g827
ag0
(g394
g2
Ntp875
Rp876
(dp877
g6
g53
sg8
(lp878
sg11
g49
sg13
Nsg14
g52
sg19
I0
sg18
F1.0
sg22
Nsg20
Nsg23
I1
sg24
Nsg345
g346
sbag870
asg345
(lp879
F46.0
aF46.33333333333333
aF46.666666666666664
asbag0
(g394
g2
Ntp880
Rp881
(dp882
g6
g53
sg8
(lp883
sg11
g49
sg13
Nsg14
g52
sg19
I0
sg18
F1.0
sg22
Nsg20
Nsg23
I1
sg24
Nsg345
g346
sbasg345
(lp884
F46.0
aF46.999999999999986
asbasg345
(lp885
F44.00000000000003
aF46.0
asbasg345
(lp886
F40.000000000000085
aF44.00000000000003
asbasg345
(lp887
F32.0
aF40.000000000000085
asbag0
(g1
g2
Ntp888
Rp889
(dp890
g6
(lp891
I3
aI2
aI2
aI2
aI2
asg8
(F0.0
(F46.666666666666664
F48.0
F66.0
tp892
tp893
sg11
(lp894
F12744900.083333332
aF14768982.053333338
asg13
F1.0
sg14
(lp895
g691
aNasg16
F3.4864660152312094e-10
sg17
I1
sg18
F3.4864660152312094e-10
sg19
I5
sg20
(F0.0
F12744900.083333332
tp896
sg22
F16.0
sg23
I2
sg24
(lp897
g0
(g1
g2
Ntp898
Rp899
(dp900
g6
(lp901
I2
aI2
aI2
asg8
(F0.0
(F46.666666666666664
F48.0
F58.0
tp902
tp903
sg11
(lp904
F12744900.083333332
aF13734696.166666668
asg13
F1.0
sg14
(lp905
g691
ag0
(g44
g2
Ntp906
Rp907
(dp908
g48
F52.0
sg11
g49
sg8
(lp909
sg51
I26
sg13
Nsg14
g52
sg24
Nsg22
Nsg6
g53
sg18
F1.0
sg19
I0
sg20
Nsg54
F58.0
sg23
I0
sg55
g56
sg345
g346
sg347
F51.0
sbasg16
F2.710974372671481e-05
sg17
I1
sg18
F2.710974372671481e-05
sg19
I3
sg20
(F0.0
F12744900.083333332
tp910
sg22
F8.0
sg23
I2
sg24
(lp911
g0
(g1
g2
Ntp912
Rp913
(dp914
g6
(lp915
I2
aI2
asg8
(F0.0
(F46.666666666666664
F48.0
F52.0
tp916
tp917
sg11
(lp918
F12744900.083333332
aF13246940.983333334
asg13
F1.0
sg14
(lp919
g691
ag0
(g44
g2
Ntp920
Rp921
(dp922
g48
F50.0
sg11
g49
sg8
(lp923
sg51
I24
sg13
Nsg14
g52
sg24
Nsg22
Nsg6
g53
sg18
F1.0
sg19
I0
sg20
Nsg54
F51.0
sg23
I0
sg55
g56
sg345
g346
sg347
F49.0
sbasg16
F0.0015058695383292151
sg17
I1
sg18
F0.0015058695383292151
sg19
I2
sg20
(F0.0
F12744900.083333332
tp924
sg22
F4.0
sg23
I2
sg24
(lp925
g0
(g1
g2
Ntp926
Rp927
(dp928
g6
(lp929
I2
asg8
(F0.0
(F46.666666666666664
F48.0
F50.0
tp930
tp931
sg11
(lp932
F12744900.083333332
aF12997961.350000001
asg13
F1.0
sg14
(lp933
g691
ag0
(g44
g2
Ntp934
Rp935
(dp936
g48
F49.0
sg11
g49
sg8
(lp937
sg51
I23
sg13
Nsg14
g52
sg24
Nsg22
Nsg6
g53
sg18
F1.0
sg19
I0
sg20
Nsg54
F50.0
sg23
I0
sg55
g56
sg345
g346
sg347
F48.0
sbasg16
F0.06182065217391304
sg17
I1
sg18
F0.06182065217391304
sg19
I1
sg20
(F0.0
F12744900.083333332
tp938
sg22
F2.0
sg23
I2
sg24
(lp939
g691
ag935
asg345
(lp940
F48.0
aF49.0
asbag0
(g1
g2
Ntp941
Rp942
(dp943
g6
(lp944
I2
asg8
(F0.0
(F49.0
F50.0
F52.0
tp945
tp946
sg11
(lp947
F13246940.983333334
aF13477553.266666666
asg13
F1.0
sg14
(lp948
g921
ag0
(g44
g2
Ntp949
Rp950
(dp951
g48
F51.0
sg11
g49
sg8
(lp952
sg51
I25
sg13
Nsg14
g52
sg24
Nsg22
Nsg6
g53
sg18
F1.0
sg19
I0
sg20
Nsg54
F52.0
sg23
I0
sg55
g56
sg345
g346
sg347
F50.0
sbasg16
F0.06182065217391304
sg17
I1
sg18
F0.06182065217391304
sg19
I1
sg20
(F0.0
F13246940.983333334
tp953
sg22
F2.0
sg23
I2
sg24
(lp954
g921
ag950
asg345
(lp955
F50.0
aF51.0
asbasg345
(lp956
F48.0
aF50.0
asbag907
asg345
(lp957
F48.0
aF52.0
asbag0
(g1
g2
Ntp958
Rp959
(dp960
g6
(lp961
I3
aI2
aI2
aI2
asg8
(F0.0
(F52.0
F56.0
F66.0
tp962
tp963
sg11
(lp964
F14768982.053333338
aF15631023.013333332
asg13
F1.0
sg14
(lp965
NaNasg16
F3.263922518015254e-05
sg17
I1
sg18
F3.263922518015254e-05
sg19
I4
sg20
(F0.0
F14768982.053333338
tp966
sg22
F8.0
sg23
I2
sg24
(lp967
g0
(g1
g2
Ntp968
Rp969
(dp970
g6
(lp971
I3
aI2
aI2
asg8
(F0.5
(F52.0
F58.0
F66.0
tp972
tp973
sg11
(lp974
F14768982.053333338
aF15200002.533333335
asg13
F1.0
sg14
(lp975
Nag0
(g44
g2
Ntp976
Rp977
(dp978
g48
F58.0
sg11
g49
sg8
(lp979
sg51
I27
sg13
Nsg14
g52
sg24
Nsg22
Nsg6
g53
sg18
F1.0
sg19
I0
sg20
Nsg54
F59.666666666666664
sg23
I0
sg55
g56
sg345
g346
sg347
F52.0
sbasg16
F0.0005823629026082975
sg17
I1
sg18
F0.0005823629026082975
sg19
I3
sg20
(F0.5
F15200002.533333335
tp980
sg22
F4.0
sg23
I2
sg24
(lp981
g0
(g394
g2
Ntp982
Rp983
(dp984
g6
g53
sg8
(lp985
sg11
g49
sg13
Nsg14
g52
sg19
I0
sg18
F1.0
sg22
Nsg20
Nsg23
I1
sg24
Nsg345
g346
sbag0
(g1
g2
Ntp986
Rp987
(dp988
g6
(lp989
I3
aI2
asg8
(F0.0
(F52.0
F58.0
F66.0
tp990
tp991
sg11
(lp992
F15200002.533333335
aF15415512.773333333
asg13
F1.0
sg14
(lp993
g977
aNasg16
F0.008445696479206049
sg17
I1
sg18
F0.008445696479206049
sg19
I2
sg20
(F0.0
F15200002.533333335
tp994
sg22
F2.0
sg23
I2
sg24
(lp995
g977
ag0
(g1
g2
Ntp996
Rp997
(dp998
g6
(lp999
I3
asg8
(F0.0
(F58.0
I59
F66.0
tp1000
tp1001
sg11
(lp1002
NaNaF15559186.266666666
asg13
F1.0
sg14
(lp1003
NaNag0
(g44
g2
Ntp1004
Rp1005
(dp1006
g48
F59.666666666666664
sg11
g49
sg8
(lp1007
sg51
I28
sg13
Nsg14
g52
sg24
Nsg22
Nsg6
g53
sg18
F1.0
sg19
I0
sg20
Nsg54
F66.0
sg23
I0
sg55
g56
sg345
g346
sg347
F58.0
sbasg16
F0.1358695652173913
sg17
I1
sg18
F0.1358695652173913
sg19
I1
sg20
(F0.6666666666666666
F15559186.266666666
tp1008
sg22
F0.9999999999999858
sg23
I2
sg24
(lp1009
g0
(g394
g2
Ntp1010
Rp1011
(dp1012
g6
g53
sg8
(lp1013
sg11
g49
sg13
Nsg14
g52
sg19
I0
sg18
F1.0
sg22
Nsg20
Nsg23
I1
sg24
Nsg345
g346
sbag0
(g394
g2
Ntp1014
Rp1015
(dp1016
g6
g53
sg8
(lp1017
sg11
g49
sg13
Nsg14
g52
sg19
I0
sg18
F1.0
sg22
Nsg20
Nsg23
I1
sg24
Nsg345
g346
sbag1005
asg345
(lp1018
I59
aF59.33333333333333
aF59.666666666666664
asbasg345
(lp1019
F58.0
aI59
asbasg345
(lp1020
F56.0
aF58.0
asbag0
(g394
g2
Ntp1021
Rp1022
(dp1023
g6
g53
sg8
(lp1024
sg11
g49
sg13
Nsg14
g52
sg19
I0
sg18
F1.0
sg22
Nsg20
Nsg23
I1
sg24
Nsg345
g346
sbasg345
(lp1025
F56.0
aF60.0
asbasg345
(lp1026
F48.0
aF56.0
asbasg345
(lp1027
F32.0
aF48.0
asbasg345
(lp1028
F0.0
aF32.0
asbag0
(g1
g2
Ntp1029
Rp1030
(dp1031
g6
(lp1032
I3
aI2
aI2
aI2
aI2
aI2
aI2
asg8
(F0.0
(F59.666666666666664
F64.0
F140.0
tp1033
tp1034
sg11
(lp1035
F16624492.566666655
aF24600004.1
asg13
F1.0
sg14
(lp1036
NaNasg16
F1.0475293575711827e-42
sg17
I1
sg18
F1.0475293575711827e-42
sg19
I7
sg20
(F0.0
F16624492.566666655
tp1037
sg22
F64.0
sg23
I2
sg24
(lp1038
g0
(g1
g2
Ntp1039
Rp1040
(dp1041
g6
(lp1042
I3
aI2
aI2
aI2
aI2
aI2
asg8
(F0.0
(F59.666666666666664
F64.0
F101.0
tp1043
tp1044
sg11
(lp1045
F16624492.566666655
aF20575513.633333333
asg13
F1.0
sg14
(lp1046
NaNasg16
F3.774665632598389e-18
sg17
I1
sg18
F3.774665632598389e-18
sg19
I6
sg20
(F0.0
F16624492.566666655
tp1047
sg22
F32.0
sg23
I2
sg24
(lp1048
g0
(g1
g2
Ntp1049
Rp1050
(dp1051
g6
(lp1052
I2
aI2
aI2
asg8
(F0.0
(F59.666666666666664
F64.0
F85.0
tp1053
tp1054
sg11
(lp1055
F16624492.566666655
aF18644901.06666667
asg13
F1.0
sg14
(lp1056
Nag0
(g44
g2
Ntp1057
Rp1058
(dp1059
g48
F72.0
sg11
g49
sg8
(lp1060
sg51
I32
sg13
Nsg14
g52
sg24
Nsg22
Nsg6
g53
sg18
F1.0
sg19
I0
sg20
Nsg54
F74.0
sg23
I0
sg55
g56
sg345
g346
sg347
F70.0
sbasg16
F2.7212538308204554e-07
sg17
I1
sg18
F2.7212538308204554e-07
sg19
I3
sg20
(F0.0
F16624492.566666655
tp1061
sg22
F16.0
sg23
I2
sg24
(lp1062
g0
(g1
g2
Ntp1063
Rp1064
(dp1065
g6
(lp1066
I2
aI2
asg8
(F0.5
(F59.666666666666664
F68.0
F72.0
tp1067
tp1068
sg11
(lp1069
F16624492.566666655
aF17653064.166666664
asg13
F1.0
sg14
(lp1070
Nag0
(g44
g2
Ntp1071
Rp1072
(dp1073
g48
F68.0
sg11
g49
sg8
(lp1074
sg51
I30
sg13
Nsg14
g52
sg24
Nsg22
Nsg6
g53
sg18
F1.0
sg19
I0
sg20
Nsg54
F70.0
sg23
I0
sg55
g56
sg345
g346
sg347
F66.0
sbasg16
F0.0006205506339268744
sg17
I1
sg18
F0.0006205506339268744
sg19
I2
sg20
(F0.5
F17653064.166666664
tp1075
sg22
F8.0
sg23
I2
sg24
(lp1076
g0
(g1
g2
Ntp1077
Rp1078
(dp1079
g6
(lp1080
I2
asg8
(F0.5
(F59.666666666666664
F66.0
F68.0
tp1081
tp1082
sg11
(lp1083
NaF17161227.35
asg13
F1.0
sg14
(lp1084
Nag0
(g44
g2
Ntp1085
Rp1086
(dp1087
g48
F66.0
sg11
g49
sg8
(lp1088
sg51
I29
sg13
Nsg14
g52
sg24
Nsg22
Nsg6
g53
sg18
F1.0
sg19
I0
sg20
Nsg54
F68.0
sg23
I0
sg55
g56
sg345
g346
sg347
F59.666666666666664
sbasg16
F0.025475543478260868
sg17
I1
sg18
F0.025475543478260868
sg19
I1
sg20
(F0.5
F17161227.35
tp1089
sg22
Nsg23
I2
sg24
(lp1090
g0
(g394
g2
Ntp1091
Rp1092
(dp1093
g6
g53
sg8
(lp1094
sg11
g49
sg13
Nsg14
g52
sg19
I0
sg18
F1.0
sg22
Nsg20
Nsg23
I1
sg24
Nsg345
g346
sbag1086
asg345
(lp1095
NaF66.0
asbag0
(g1
g2
Ntp1096
Rp1097
(dp1098
g6
(lp1099
I2
asg8
(F0.0
(F66.0
F68.0
F72.0
tp1100
tp1101
sg11
(lp1102
F17653064.166666664
aF18167349.96666667
asg13
F1.0
sg14
(lp1103
g1072
ag0
(g44
g2
Ntp1104
Rp1105
(dp1106
g48
F70.0
sg11
g49
sg8
(lp1107
sg51
I31
sg13
Nsg14
g52
sg24
Nsg22
Nsg6
g53
sg18
F1.0
sg19
I0
sg20
Nsg54
F72.0
sg23
I0
sg55
g56
sg345
g346
sg347
F68.0
sbasg16
F0.06182065217391304
sg17
I1
sg18
F0.06182065217391304
sg19
I1
sg20
(F0.0
F17653064.166666664
tp1108
sg22
F4.0
sg23
I2
sg24
(lp1109
g1072
ag1105
asg345
(lp1110
F68.0
aF70.0
asbasg345
(lp1111
F64.0
aF68.0
asbag0
(g1
g2
Ntp1112
Rp1113
(dp1114
g6
(lp1115
I2
aI2
asg8
(F0.0
(F70.0
F72.0
F85.0
tp1116
tp1117
sg11
(lp1118
F18644901.06666667
aF19608166.53333333
asg13
F1.0
sg14
(lp1119
g1058
ag0
(g44
g2
Ntp1120
Rp1121
(dp1122
g48
F76.0
sg11
g49
sg8
(lp1123
sg51
I34
sg13
Nsg14
g52
sg24
Nsg22
Nsg6
g53
sg18
F1.0
sg19
I0
sg20
Nsg54
F85.0
sg23
I0
sg55
g56
sg345
g346
sg347
F74.0
sbasg16
F0.0011129397300330812
sg17
I1
sg18
F0.0011129397300330812
sg19
I2
sg20
(F0.0
F18644901.06666667
tp1124
sg22
F8.0
sg23
I2
sg24
(lp1125
g0
(g1
g2
Ntp1126
Rp1127
(dp1128
g6
(lp1129
I2
asg8
(F0.0
(F70.0
F72.0
F76.0
tp1130
tp1131
sg11
(lp1132
F18644901.06666667
aF19112248.083333336
asg13
F1.0
sg14
(lp1133
g1058
ag0
(g44
g2
Ntp1134
Rp1135
(dp1136
g48
F74.0
sg11
g49
sg8
(lp1137
sg51
I33
sg13
Nsg14
g52
sg24
Nsg22
Nsg6
g53
sg18
F1.0
sg19
I0
sg20
Nsg54
F76.0
sg23
I0
sg55
g56
sg345
g346
sg347
F72.0
sbasg16
F0.06182065217391304
sg17
I1
sg18
F0.06182065217391304
sg19
I1
sg20
(F0.0
F18644901.06666667
tp1138
sg22
F4.0
sg23
I2
sg24
(lp1139
g1058
ag1135
asg345
(lp1140
F72.0
aF74.0
asbag1121
asg345
(lp1141
F72.0
aF76.0
asbasg345
(lp1142
F64.0
aF72.0
asbag0
(g1
g2
Ntp1143
Rp1144
(dp1145
g6
(lp1146
I3
aI2
aI2
aI2
aI2
asg8
(F0.0
(F76.0
F80.0
F101.0
tp1147
tp1148
sg11
(lp1149
F20575513.633333333
aF22548983.35
asg13
F1.0
sg14
(lp1150
Nag0
(g44
g2
Ntp1151
Rp1152
(dp1153
g48
F88.0
sg11
g49
sg8
(lp1154
sg51
I38
sg13
Nsg14
g52
sg24
Nsg22
Nsg6
g53
sg18
F1.0
sg19
I0
sg20
Nsg54
F88.66666666666667
sg23
I0
sg55
g56
sg345
g346
sg347
F87.0
sbasg16
F3.520377608757884e-11
sg17
I1
sg18
F3.520377608757884e-11
sg19
I5
sg20
(F0.0
F20575513.633333333
tp1155
sg22
F16.0
sg23
I2
sg24
(lp1156
g0
(g1
g2
Ntp1157
Rp1158
(dp1159
g6
(lp1160
I2
aI2
aI2
asg8
(F0.5
(F76.0
F84.0
F88.0
tp1161
tp1162
sg11
(lp1163
F20575513.633333333
aF21555105.633333333
asg13
F1.0
sg14
(lp1164
NaNasg16
F4.278932699971314e-05
sg17
I1
sg18
F4.278932699971314e-05
sg19
I3
sg20
(F0.5
F21555105.633333333
tp1165
sg22
F8.0
sg23
I2
sg24
(lp1166
g0
(g394
g2
Ntp1167
Rp1168
(dp1169
g6
g53
sg8
(lp1170
sg11
g49
sg13
Nsg14
g52
sg19
I0
sg18
F1.0
sg22
Nsg20
Nsg23
I1
sg24
Nsg345
g346
sbag0
(g1
g2
Ntp1171
Rp1172
(dp1173
g6
(lp1174
I2
aI2
asg8
(F0.5
(F76.0
F86.0
F88.0
tp1175
tp1176
sg11
(lp1177
F21555105.633333333
aF22044901.633333333
asg13
F1.0
sg14
(lp1178
Nag0
(g44
g2
Ntp1179
Rp1180
(dp1181
g48
F86.0
sg11
g49
sg8
(lp1182
sg51
I36
sg13
Nsg14
g52
sg24
Nsg22
Nsg6
g53
sg18
F1.0
sg19
I0
sg20
Nsg54
F87.0
sg23
I0
sg55
g56
sg345
g346
sg347
F85.0
sbasg16
F0.0006205506339268744
sg17
I1
sg18
F0.0006205506339268744
sg19
I2
sg20
(F0.5
F22044901.633333333
tp1183
sg22
F4.0
sg23
I2
sg24
(lp1184
g0
(g1
g2
Ntp1185
Rp1186
(dp1187
g6
(lp1188
I2
asg8
(F0.5
(F76.0
F85.0
F86.0
tp1189
tp1190
sg11
(lp1191
NaF21804085.266666666
asg13
F1.0
sg14
(lp1192
Nag0
(g44
g2
Ntp1193
Rp1194
(dp1195
g48
F85.0
sg11
g49
sg8
(lp1196
sg51
I35
sg13
Nsg14
g52
sg24
Nsg22
Nsg6
g53
sg18
F1.0
sg19
I0
sg20
Nsg54
F86.0
sg23
I0
sg55
g56
sg345
g346
sg347
F76.0
sbasg16
F0.025475543478260868
sg17
I1
sg18
F0.025475543478260868
sg19
I1
sg20
(F0.5
F21804085.266666666
tp1197
sg22
Nsg23
I2
sg24
(lp1198
g0
(g394
g2
Ntp1199
Rp1200
(dp1201
g6
g53
sg8
(lp1202
sg11
g49
sg13
Nsg14
g52
sg19
I0
sg18
F1.0
sg22
Nsg20
Nsg23
I1
sg24
Nsg345
g346
sbag1194
asg345
(lp1203
NaF85.0
asbag0
(g1
g2
Ntp1204
Rp1205
(dp1206
g6
(lp1207
I2
asg8
(F0.0
(F85.0
F86.0
F88.0
tp1208
tp1209
sg11
(lp1210
F22044901.633333333
aF22289799.633333333
asg13
F1.0
sg14
(lp1211
g1180
ag0
(g44
g2
Ntp1212
Rp1213
(dp1214
g48
F87.0
sg11
g49
sg8
(lp1215
sg51
I37
sg13
Nsg14
g52
sg24
Nsg22
Nsg6
g53
sg18
F1.0
sg19
I0
sg20
Nsg54
F88.0
sg23
I0
sg55
g56
sg345
g346
sg347
F86.0
sbasg16
F0.06182065217391304
sg17
I1
sg18
F0.06182065217391304
sg19
I1
sg20
(F0.0
F22044901.633333333
tp1216
sg22
F2.0
sg23
I2
sg24
(lp1217
g1180
ag1213
asg345
(lp1218
F86.0
aF87.0
asbasg345
(lp1219
F84.0
aF86.0
asbasg345
(lp1220
F80.0
aF84.0
asbag0
(g1
g2
Ntp1221
Rp1222
(dp1223
g6
(lp1224
I3
aI2
aI2
aI2
asg8
(F0.0
(F87.0
F88.0
F101.0
tp1225
tp1226
sg11
(lp1227
F22548983.35
aF23508167.18333333
asg13
F1.0
sg14
(lp1228
g1152
aNasg16
F2.0880149824335247e-06
sg17
I1
sg18
F2.0880149824335247e-06
sg19
I4
sg20
(F0.0
F22548983.35
tp1229
sg22
F8.0
sg23
I2
sg24
(lp1230
g0
(g1
g2
Ntp1231
Rp1232
(dp1233
g6
(lp1234
I3
aI2
aI2
asg8
(F0.0
(F87.0
F88.0
F101.0
tp1235
tp1236
sg11
(lp1237
F22548983.35
aF23028575.266666666
asg13
F1.0
sg14
(lp1238
g1152
ag0
(g44
g2
Ntp1239
Rp1240
(dp1241
g48
F90.0
sg11
g49
sg8
(lp1242
sg51
I40
sg13
Nsg14
g52
sg24
Nsg22
Nsg6
g53
sg18
F1.0
sg19
I0
sg20
Nsg54
F91.0
sg23
I0
sg55
g56
sg345
g346
sg347
F88.66666666666667
sbasg16
F3.725524914111695e-05
sg17
I1
sg18
F3.725524914111695e-05
sg19
I3
sg20
(F0.0
F22548983.35
tp1243
sg22
F4.0
sg23
I2
sg24
(lp1244
g0
(g1
g2
Ntp1245
Rp1246
(dp1247
g6
(lp1248
I3
aI2
asg8
(F0.0
(F87.0
F88.0
F90.0
tp1249
tp1250
sg11
(lp1251
F22548983.35
aF22885718.099999994
asg13
F1.0
sg14
(lp1252
g1152
aNasg16
F0.00923315383536153
sg17
I1
sg18
F0.00923315383536153
sg19
I2
sg20
(F0.0
F22548983.35
tp1253
sg22
F2.000000000000057
sg23
I2
sg24
(lp1254
g0
(g1
g2
Ntp1255
Rp1256
(dp1257
g6
(lp1258
I3
asg8
(F0.0
(F87.0
F88.0
F90.0
tp1259
tp1260
sg11
(lp1261
F22548983.35
aF22661228.266666666
aF22773473.18333333
asg13
F1.0
sg14
(lp1262
g1152
aNag0
(g44
g2
Ntp1263
Rp1264
(dp1265
g48
F88.66666666666667
sg11
g49
sg8
(lp1266
sg51
I39
sg13
Nsg14
g52
sg24
Nsg22
Nsg6
g53
sg18
F1.0
sg19
I0
sg20
Nsg54
F90.0
sg23
I0
sg55
g56
sg345
g346
sg347
F88.0
sbasg16
F0.16474184782608695
sg17
I1
sg18
F0.16474184782608695
sg19
I1
sg20
(F0.0
F22548983.35
tp1267
sg22
F1.0000000000000284
sg23
I2
sg24
(lp1268
g1152
ag0
(g394
g2
Ntp1269
Rp1270
(dp1271
g6
g53
sg8
(lp1272
sg11
g49
sg13
Nsg14
g52
sg19
I0
sg18
F1.0
sg22
Nsg20
Nsg23
I1
sg24
Nsg345
g346
sbag1264
asg345
(lp1273
F88.0
aF88.33333333333334
aF88.66666666666667
asbag0
(g394
g2
Ntp1274
Rp1275
(dp1276
g6
g53
sg8
(lp1277
sg11
g49
sg13
Nsg14
g52
sg19
I0
sg18
F1.0
sg22
Nsg20
Nsg23
I1
sg24
Nsg345
g346
sbasg345
(lp1278
F88.0
aF89.00000000000003
asbag0
(g1
g2
Ntp1279
Rp1280
(dp1281
g6
(lp1282
I3
aI2
asg8
(F0.0
(F88.66666666666667
F90.0
F101.0
tp1283
tp1284
sg11
(lp1285
F23028575.266666666
aF23273473.266666666
asg13
F1.0
sg14
(lp1286
g1240
ag0
(g44
g2
Ntp1287
Rp1288
(dp1289
g48
F91.0
sg11
g49
sg8
(lp1290
sg51
I41
sg13
Nsg14
g52
sg24
Nsg22
Nsg6
g53
sg18
F1.0
sg19
I0
sg20
Nsg54
F91.66666666666667
sg23
I0
sg55
g56
sg345
g346
sg347
F90.0
sbasg16
F0.010240406981037333
sg17
I1
sg18
F0.010240406981037333
sg19
I2
sg20
(F0.0
F23028575.266666666
tp1291
sg22
F2.0
sg23
I2
sg24
(lp1292
g1240
ag0
(g1
g2
Ntp1293
Rp1294
(dp1295
g6
(lp1296
I3
asg8
(F0.0
(F90.0
F91.0
F101.0
tp1297
tp1298
sg11
(lp1299
F23273473.266666666
aF23351024.3
aF23428575.333333336
asg13
F1.0
sg14
(lp1300
g1288
aNag0
(g44
g2
Ntp1301
Rp1302
(dp1303
g48
F91.66666666666667
sg11
g49
sg8
(lp1304
sg51
I42
sg13
Nsg14
g52
sg24
Nsg22
Nsg6
g53
sg18
F1.0
sg19
I0
sg20
Nsg54
F101.0
sg23
I0
sg55
g56
sg345
g346
sg347
F91.0
sbasg16
F0.16474184782608695
sg17
I1
sg18
F0.16474184782608695
sg19
I1
sg20
(F0.0
F23273473.266666666
tp1305
sg22
F1.0000000000000284
sg23
I2
sg24
(lp1306
g1288
ag0
(g394
g2
Ntp1307
Rp1308
(dp1309
g6
g53
sg8
(lp1310
sg11
g49
sg13
Nsg14
g52
sg19
I0
sg18
F1.0
sg22
Nsg20
Nsg23
I1
sg24
Nsg345
g346
sbag1302
asg345
(lp1311
F91.0
aF91.33333333333334
aF91.66666666666667
asbasg345
(lp1312
F90.0
aF91.0
asbasg345
(lp1313
F88.0
aF90.0
asbag0
(g394
g2
Ntp1314
Rp1315
(dp1316
g6
g53
sg8
(lp1317
sg11
g49
sg13
Nsg14
g52
sg19
I0
sg18
F1.0
sg22
Nsg20
Nsg23
I1
sg24
Nsg345
g346
sbasg345
(lp1318
F88.0
aF92.0
asbasg345
(lp1319
F80.0
aF88.0
asbasg345
(lp1320
F64.0
aF80.0
asbag0
(g1
g2
Ntp1321
Rp1322
(dp1323
g6
(lp1324
I3
aI2
aI2
aI2
aI2
aI2
asg8
(F0.0
(F91.66666666666667
F96.0
F140.0
tp1325
tp1326
sg11
(lp1327
F24600004.1
aF28631297.28888889
asg13
F1.0
sg14
(lp1328
NaNasg16
F7.043159646121039e-25
sg17
I1
sg18
F7.043159646121039e-25
sg19
I6
sg20
(F0.0
F24600004.1
tp1329
sg22
F32.0
sg23
I2
sg24
(lp1330
g0
(g1
g2
Ntp1331
Rp1332
(dp1333
g6
(lp1334
I3
aI2
aI2
aI2
aI2
asg8
(F0.0
(F91.66666666666667
F96.0
F116.66666666666667
tp1335
tp1336
sg11
(lp1337
F24600004.1
aF26434698.283333335
asg13
F1.0
sg14
(lp1338
NaNasg16
F9.450602262365348e-13
sg17
I1
sg18
F9.450602262365348e-13
sg19
I5
sg20
(F0.0
F24600004.1
tp1339
sg22
F16.0
sg23
I2
sg24
(lp1340
g0
(g1
g2
Ntp1341
Rp1342
(dp1343
g6
(lp1344
I3
aI2
aI2
aI2
asg8
(F0.5
(F91.66666666666667
F100.0
F104.66666666666667
tp1345
tp1346
sg11
(lp1347
F24600004.1
aF25518371.6
asg13
F1.0
sg14
(lp1348
NaNasg16
F6.1044729789134935e-06
sg17
I1
sg18
F6.1044729789134935e-06
sg19
I4
sg20
(F0.5
F25518371.6
tp1349
sg22
F8.0
sg23
I2
sg24
(lp1350
g0
(g394
g2
Ntp1351
Rp1352
(dp1353
g6
g53
sg8
(lp1354
sg11
g49
sg13
Nsg14
g52
sg19
I0
sg18
F1.0
sg22
Nsg20
Nsg23
I1
sg24
Nsg345
g346
sbag0
(g1
g2
Ntp1355
Rp1356
(dp1357
g6
(lp1358
I3
aI2
aI2
asg8
(F0.5
(F91.66666666666667
F102.0
F104.66666666666667
tp1359
tp1360
sg11
(lp1361
F25518371.6
aF25977555.35
asg13
F1.0
sg14
(lp1362
Nag0
(g44
g2
Ntp1363
Rp1364
(dp1365
g48
F102.0
sg11
g49
sg8
(lp1366
sg51
I44
sg13
Nsg14
g52
sg24
Nsg22
Nsg6
g53
sg18
F1.0
sg19
I0
sg20
Nsg54
F102.66666666666667
sg23
I0
sg55
g56
sg345
g346
sg347
F101.0
sbasg16
F8.852989384197698e-05
sg17
I1
sg18
F8.852989384197698e-05
sg19
I3
sg20
(F0.5
F25977555.35
tp1367
sg22
F4.0
sg23
I2
sg24
(lp1368
g0
(g1
g2
Ntp1369
Rp1370
(dp1371
g6
(lp1372
I2
asg8
(F0.5
(F91.66666666666667
F101.0
F102.0
tp1373
tp1374
sg11
(lp1375
NaF25728575.71666667
asg13
F1.0
sg14
(lp1376
Nag0
(g44
g2
Ntp1377
Rp1378
(dp1379
g48
F101.0
sg11
g49
sg8
(lp1380
sg51
I43
sg13
Nsg14
g52
sg24
Nsg22
Nsg6
g53
sg18
F1.0
sg19
I0
sg20
Nsg54
F102.0
sg23
I0
sg55
g56
sg345
g346
sg347
F91.66666666666667
sbasg16
F0.025475543478260868
sg17
I1
sg18
F0.025475543478260868
sg19
I1
sg20
(F0.5
F25728575.71666667
tp1381
sg22
Nsg23
I2
sg24
(lp1382
g0
(g394
g2
Ntp1383
Rp1384
(dp1385
g6
g53
sg8
(lp1386
sg11
g49
sg13
Nsg14
g52
sg19
I0
sg18
F1.0
sg22
Nsg20
Nsg23
I1
sg24
Nsg345
g346
sbag1378
asg345
(lp1387
NaF101.0
asbag0
(g1
g2
Ntp1388
Rp1389
(dp1390
g6
(lp1391
I3
aI2
asg8
(F0.0
(F101.0
F102.0
F104.66666666666667
tp1392
tp1393
sg11
(lp1394
F25977555.35
aF26207147.225
asg13
F1.0
sg14
(lp1395
g1364
aNasg16
F0.008819547471195137
sg17
I1
sg18
F0.008819547471195137
sg19
I2
sg20
(F0.0
F25977555.35
tp1396
sg22
F2.0
sg23
I2
sg24
(lp1397
g0
(g1
g2
Ntp1398
Rp1399
(dp1400
g6
(lp1401
I3
asg8
(F0.0
(F101.0
F102.0
F103.66666666666667
tp1402
tp1403
sg11
(lp1404
F25977555.35
aF26054085.975
aF26130616.6
asg13
F1.0
sg14
(lp1405
g1364
aNag0
(g44
g2
Ntp1406
Rp1407
(dp1408
g48
F102.66666666666667
sg11
g49
sg8
(lp1409
sg51
I45
sg13
Nsg14
g52
sg24
Nsg22
Nsg6
g53
sg18
F1.0
sg19
I0
sg20
Nsg54
F103.66666666666667
sg23
I0
sg55
g56
sg345
g346
sg347
F102.0
sbasg16
F0.16474184782608695
sg17
I1
sg18
F0.16474184782608695
sg19
I1
sg20
(F0.0
F25977555.35
tp1410
sg22
F1.0000000000000284
sg23
I2
sg24
(lp1411
g1364
ag0
(g394
g2
Ntp1412
Rp1413
(dp1414
g6
g53
sg8
(lp1415
sg11
g49
sg13
Nsg14
g52
sg19
I0
sg18
F1.0
sg22
Nsg20
Nsg23
I1
sg24
Nsg345
g346
sbag1407
asg345
(lp1416
F102.0
aF102.33333333333334
aF102.66666666666667
asbag0
(g1
g2
Ntp1417
Rp1418
(dp1419
g6
(lp1420
I3
asg8
(F0.0
(F102.66666666666667
I103
F104.66666666666667
tp1421
tp1422
sg11
(lp1423
NaNaF26361228.883333333
asg13
F1.0
sg14
(lp1424
NaNag0
(g44
g2
Ntp1425
Rp1426
(dp1427
g48
F103.66666666666667
sg11
g49
sg8
(lp1428
sg51
I46
sg13
Nsg14
g52
sg24
Nsg22
Nsg6
g53
sg18
F1.0
sg19
I0
sg20
Nsg54
F104.66666666666667
sg23
I0
sg55
g56
sg345
g346
sg347
F102.66666666666667
sbasg16
F0.1358695652173913
sg17
I1
sg18
F0.1358695652173913
sg19
I1
sg20
(F0.6666666666666666
F26361228.883333333
tp1429
sg22
F1.0000000000000284
sg23
I2
sg24
(lp1430
g0
(g394
g2
Ntp1431
Rp1432
(dp1433
g6
g53
sg8
(lp1434
sg11
g49
sg13
Nsg14
g52
sg19
I0
sg18
F1.0
sg22
Nsg20
Nsg23
I1
sg24
Nsg345
g346
sbag0
(g394
g2
Ntp1435
Rp1436
(dp1437
g6
g53
sg8
(lp1438
sg11
g49
sg13
Nsg14
g52
sg19
I0
sg18
F1.0
sg22
Nsg20
Nsg23
I1
sg24
Nsg345
g346
sbag1426
asg345
(lp1439
I103
aF103.33333333333334
aF103.66666666666667
asbasg345
(lp1440
F102.0
aI103
asbasg345
(lp1441
F100.0
aF102.0
asbasg345
(lp1442
F96.0
aF100.0
asbag0
(g1
g2
Ntp1443
Rp1444
(dp1445
g6
(lp1446
I3
aI2
aI2
aI2
asg8
(F0.0
(F103.66666666666667
I104
F116.66666666666667
tp1447
tp1448
sg11
(lp1449
F26434698.283333335
aF27436739.266666666
asg13
F1.0
sg14
(lp1450
Nag0
(g44
g2
Ntp1451
Rp1452
(dp1453
g48
F108.0
sg11
g49
sg8
(lp1454
sg51
I50
sg13
Nsg14
g52
sg24
Nsg22
Nsg6
g53
sg18
F1.0
sg19
I0
sg20
Nsg54
F116.66666666666667
sg23
I0
sg55
g56
sg345
g346
sg347
F106.66666666666667
sbasg16
F3.929082307196806e-07
sg17
I1
sg18
F3.929082307196806e-07
sg19
I4
sg20
(F0.0
F26434698.283333335
tp1455
sg22
F8.0
sg23
I2
sg24
(lp1456
g0
(g1
g2
Ntp1457
Rp1458
(dp1459
g6
(lp1460
I3
aI2
aI2
asg8
(F0.0
(F103.66666666666667
I104
F108.0
tp1461
tp1462
sg11
(lp1463
F26434698.283333335
aF26924494.283333335
asg13
F1.0
sg14
(lp1464
NaNasg16
F2.1824940212051694e-05
sg17
I1
sg18
F2.1824940212051694e-05
sg19
I3
sg20
(F0.0
F26434698.283333335
tp1465
sg22
I4
sg23
I2
sg24
(lp1466
g0
(g1
g2
Ntp1467
Rp1468
(dp1469
g6
(lp1470
I3
aI2
asg8
(F0.0
(F103.66666666666667
I104
F106.66666666666667
tp1471
tp1472
sg11
(lp1473
F26434698.283333335
aF26679596.283333335
asg13
F1.0
sg14
(lp1474
NaNasg16
F0.0072738535844908345
sg17
I1
sg18
F0.0072738535844908345
sg19
I2
sg20
(F0.3333333333333333
F26597963.616666667
tp1475
sg22
I2
sg23
I2
sg24
(lp1476
g0
(g1
g2
Ntp1477
Rp1478
(dp1479
g6
(lp1480
I3
asg8
(F0.0
(F103.66666666666667
I104
F105.66666666666667
tp1481
tp1482
sg11
(lp1483
NaNaF26597963.616666667
asg13
F1.0
sg14
(lp1484
NaNag0
(g44
g2
Ntp1485
Rp1486
(dp1487
g48
F104.66666666666667
sg11
g49
sg8
(lp1488
sg51
I47
sg13
Nsg14
g52
sg24
Nsg22
Nsg6
g53
sg18
F1.0
sg19
I0
sg20
Nsg54
F105.66666666666667
sg23
I0
sg55
g56
sg345
g346
sg347
F103.66666666666667
sbasg16
F0.1358695652173913
sg17
I1
sg18
F0.1358695652173913
sg19
I1
sg20
(F0.6666666666666666
F26597963.616666667
tp1489
sg22
F1.0000000000000284
sg23
I2
sg24
(lp1490
g0
(g394
g2
Ntp1491
Rp1492
(dp1493
g6
g53
sg8
(lp1494
sg11
g49
sg13
Nsg14
g52
sg19
I0
sg18
F1.0
sg22
Nsg20
Nsg23
I1
sg24
Nsg345
g346
sbag0
(g394
g2
Ntp1495
Rp1496
(dp1497
g6
g53
sg8
(lp1498
sg11
g49
sg13
Nsg14
g52
sg19
I0
sg18
F1.0
sg22
Nsg20
Nsg23
I1
sg24
Nsg345
g346
sbag1486
asg345
(lp1499
I104
aF104.33333333333334
aF104.66666666666667
asbag0
(g1
g2
Ntp1500
Rp1501
(dp1502
g6
(lp1503
I3
asg8
(F0.0
(F104.66666666666667
I105
F106.66666666666667
tp1504
tp1505
sg11
(lp1506
NaNaF26842861.616666667
asg13
F1.0
sg14
(lp1507
NaNag0
(g44
g2
Ntp1508
Rp1509
(dp1510
g48
F105.66666666666667
sg11
g49
sg8
(lp1511
sg51
I48
sg13
Nsg14
g52
sg24
Nsg22
Nsg6
g53
sg18
F1.0
sg19
I0
sg20
Nsg54
F106.66666666666667
sg23
I0
sg55
g56
sg345
g346
sg347
F104.66666666666667
sbasg16
F0.1358695652173913
sg17
I1
sg18
F0.1358695652173913
sg19
I1
sg20
(F0.6666666666666666
F26842861.616666667
tp1512
sg22
F1.0000000000000284
sg23
I2
sg24
(lp1513
g0
(g394
g2
Ntp1514
Rp1515
(dp1516
g6
g53
sg8
(lp1517
sg11
g49
sg13
Nsg14
g52
sg19
I0
sg18
F1.0
sg22
Nsg20
Nsg23
I1
sg24
Nsg345
g346
sbag0
(g394
g2
Ntp1518
Rp1519
(dp1520
g6
g53
sg8
(lp1521
sg11
g49
sg13
Nsg14
g52
sg19
I0
sg18
F1.0
sg22
Nsg20
Nsg23
I1
sg24
Nsg345
g346
sbag1509
asg345
(lp1522
I105
aF105.33333333333334
aF105.66666666666667
asbasg345
(lp1523
I104
aI105
asbag0
(g1
g2
Ntp1524
Rp1525
(dp1526
g6
(lp1527
I3
aI2
asg8
(F0.0
(F105.66666666666667
I106
F108.0
tp1528
tp1529
sg11
(lp1530
NaNasg13
F1.0
sg14
(lp1531
NaNasg16
F0.007614972235349716
sg17
I1
sg18
F0.007614972235349716
sg19
I2
sg20
(F0.3333333333333333
F27085718.799999997
tp1532
sg22
F2.000000000000057
sg23
I2
sg24
(lp1533
g0
(g1
g2
Ntp1534
Rp1535
(dp1536
g6
(lp1537
I3
asg8
(F0.0
(F105.66666666666667
I106
F108.0
tp1538
tp1539
sg11
(lp1540
NaNaF27085718.799999997
asg13
F1.0
sg14
(lp1541
NaNag0
(g44
g2
Ntp1542
Rp1543
(dp1544
g48
F106.66666666666667
sg11
g49
sg8
(lp1545
sg51
I49
sg13
Nsg14
g52
sg24
Nsg22
Nsg6
g53
sg18
F1.0
sg19
I0
sg20
Nsg54
F108.0
sg23
I0
sg55
g56
sg345
g346
sg347
F105.66666666666667
sbasg16
F0.1358695652173913
sg17
I1
sg18
F0.1358695652173913
sg19
I1
sg20
(F0.6666666666666666
F27085718.799999997
tp1546
sg22
F1.0000000000000284
sg23
I2
sg24
(lp1547
g0
(g394
g2
Ntp1548
Rp1549
(dp1550
g6
g53
sg8
(lp1551
sg11
g49
sg13
Nsg14
g52
sg19
I0
sg18
F1.0
sg22
Nsg20
Nsg23
I1
sg24
Nsg345
g346
sbag0
(g394
g2
Ntp1552
Rp1553
(dp1554
g6
g53
sg8
(lp1555
sg11
g49
sg13
Nsg14
g52
sg19
I0
sg18
F1.0
sg22
Nsg20
Nsg23
I1
sg24
Nsg345
g346
sbag1543
asg345
(lp1556
I106
aF106.33333333333334
aF106.66666666666667
asbag0
(g394
g2
Ntp1557
Rp1558
(dp1559
g6
g53
sg8
(lp1560
sg11
g49
sg13
Nsg14
g52
sg19
I0
sg18
F1.0
sg22
Nsg20
Nsg23
I1
sg24
Nsg345
g346
sbasg345
(lp1561
I106
aF107.00000000000003
asbasg345
(lp1562
I104
aI106
asbag1452
asg345
(lp1563
I104
aF108.0
asbasg345
(lp1564
F96.0
aI104
asbag0
(g1
g2
Ntp1565
Rp1566
(dp1567
g6
(lp1568
I3
aI2
aI2
aI2
aI2
asg8
(F0.0
(F108.0
F112.0
F140.0
tp1569
tp1570
sg11
(lp1571
F28631297.28888889
aF30463270.383333325
asg13
F1.0
sg14
(lp1572
NaNasg16
F1.891419504330439e-12
sg17
I1
sg18
F1.891419504330439e-12
sg19
I5
sg20
(F0.0
F28631297.28888889
tp1573
sg22
F16.0
sg23
I2
sg24
(lp1574
g0
(g1
g2
Ntp1575
Rp1576
(dp1577
g6
(lp1578
I3
aI2
aI2
aI2
asg8
(F0.5
(F108.0
I116
F120.66666666666667
tp1579
tp1580
sg11
(lp1581
F28631297.28888889
aF29463950.488888893
asg13
F1.0
sg14
(lp1582
NaNasg16
F1.4374989150612521e-06
sg17
I1
sg18
F1.4374989150612521e-06
sg19
I4
sg20
(F0.5
F29463950.488888893
tp1583
sg22
F8.0
sg23
I2
sg24
(lp1584
g0
(g394
g2
Ntp1585
Rp1586
(dp1587
g6
g53
sg8
(lp1588
sg11
g49
sg13
Nsg14
g52
sg19
I0
sg18
F1.0
sg22
Nsg20
Nsg23
I1
sg24
Nsg345
g346
sbag0
(g1
g2
Ntp1589
Rp1590
(dp1591
g6
(lp1592
I3
aI2
aI2
asg8
(F0.0
(F108.0
I116
F120.66666666666667
tp1593
tp1594
sg11
(lp1595
F29463950.488888893
aF29880277.088888895
asg13
F1.0
sg14
(lp1596
NaNasg16
F2.0847274906109984e-05
sg17
I1
sg18
F2.0847274906109984e-05
sg19
I3
sg20
(F0.0
F29463950.488888893
tp1597
sg22
I4
sg23
I2
sg24
(lp1598
g0
(g1
g2
Ntp1599
Rp1600
(dp1601
g6
(lp1602
I3
aI2
asg8
(F0.0
(F108.0
I116
F118.66666666666667
tp1603
tp1604
sg11
(lp1605
F29463950.488888893
aF29710889.305555556
asg13
F1.0
sg14
(lp1606
NaNasg16
F0.0072738535844908345
sg17
I1
sg18
F0.0072738535844908345
sg19
I2
sg20
(F0.3333333333333333
F29628576.366666667
tp1607
sg22
I2
sg23
I2
sg24
(lp1608
g0
(g1
g2
Ntp1609
Rp1610
(dp1611
g6
(lp1612
I3
asg8
(F0.0
(F108.0
I116
F117.66666666666667
tp1613
tp1614
sg11
(lp1615
NaNaF29628576.366666667
asg13
F1.0
sg14
(lp1616
NaNag0
(g44
g2
Ntp1617
Rp1618
(dp1619
g48
F116.66666666666667
sg11
g49
sg8
(lp1620
sg51
I51
sg13
Nsg14
g52
sg24
Nsg22
Nsg6
g53
sg18
F1.0
sg19
I0
sg20
Nsg54
F117.66666666666667
sg23
I0
sg55
g56
sg345
g346
sg347
F108.0
sbasg16
F0.1358695652173913
sg17
I1
sg18
F0.1358695652173913
sg19
I1
sg20
(F0.6666666666666666
F29628576.366666667
tp1621
sg22
F1.0000000000000284
sg23
I2
sg24
(lp1622
g0
(g394
g2
Ntp1623
Rp1624
(dp1625
g6
g53
sg8
(lp1626
sg11
g49
sg13
Nsg14
g52
sg19
I0
sg18
F1.0
sg22
Nsg20
Nsg23
I1
sg24
Nsg345
g346
sbag0
(g394
g2
Ntp1627
Rp1628
(dp1629
g6
g53
sg8
(lp1630
sg11
g49
sg13
Nsg14
g52
sg19
I0
sg18
F1.0
sg22
Nsg20
Nsg23
I1
sg24
Nsg345
g346
sbag1618
asg345
(lp1631
I116
aF116.33333333333334
aF116.66666666666667
asbag0
(g1
g2
Ntp1632
Rp1633
(dp1634
g6
(lp1635
I3
asg8
(F0.0
(F116.66666666666667
I117
F118.66666666666667
tp1636
tp1637
sg11
(lp1638
NaNaF29875515.18333333
asg13
F1.0
sg14
(lp1639
NaNag0
(g44
g2
Ntp1640
Rp1641
(dp1642
g48
F117.66666666666667
sg11
g49
sg8
(lp1643
sg51
I52
sg13
Nsg14
g52
sg24
Nsg22
Nsg6
g53
sg18
F1.0
sg19
I0
sg20
Nsg54
F118.66666666666667
sg23
I0
sg55
g56
sg345
g346
sg347
F116.66666666666667
sbasg16
F0.1358695652173913
sg17
I1
sg18
F0.1358695652173913
sg19
I1
sg20
(F0.6666666666666666
F29875515.18333333
tp1644
sg22
F1.0000000000000284
sg23
I2
sg24
(lp1645
g0
(g394
g2
Ntp1646
Rp1647
(dp1648
g6
g53
sg8
(lp1649
sg11
g49
sg13
Nsg14
g52
sg19
I0
sg18
F1.0
sg22
Nsg20
Nsg23
I1
sg24
Nsg345
g346
sbag0
(g394
g2
Ntp1650
Rp1651
(dp1652
g6
g53
sg8
(lp1653
sg11
g49
sg13
Nsg14
g52
sg19
I0
sg18
F1.0
sg22
Nsg20
Nsg23
I1
sg24
Nsg345
g346
sbag1641
asg345
(lp1654
I117
aF117.33333333333334
aF117.66666666666667
asbasg345
(lp1655
I116
aI117
asbag0
(g1
g2
Ntp1656
Rp1657
(dp1658
g6
(lp1659
I3
aI2
asg8
(F0.0
(F117.66666666666667
I118
F120.66666666666667
tp1660
tp1661
sg11
(lp1662
F29880277.088888895
aF30114971.00555556
asg13
F1.0
sg14
(lp1663
NaNasg16
F0.0072738535844908345
sg17
I1
sg18
F0.0072738535844908345
sg19
I2
sg20
(F0.3333333333333333
F30036739.700000003
tp1664
sg22
I2
sg23
I2
sg24
(lp1665
g0
(g1
g2
Ntp1666
Rp1667
(dp1668
g6
(lp1669
I3
asg8
(F0.0
(F117.66666666666667
I118
F119.66666666666667
tp1670
tp1671
sg11
(lp1672
NaNaF30036739.700000003
asg13
F1.0
sg14
(lp1673
NaNag0
(g44
g2
Ntp1674
Rp1675
(dp1676
g48
F118.66666666666667
sg11
g49
sg8
(lp1677
sg51
I53
sg13
Nsg14
g52
sg24
Nsg22
Nsg6
g53
sg18
F1.0
sg19
I0
sg20
Nsg54
F119.66666666666667
sg23
I0
sg55
g56
sg345
g346
sg347
F117.66666666666667
sbasg16
F0.1358695652173913
sg17
I1
sg18
F0.1358695652173913
sg19
I1
sg20
(F0.6666666666666666
F30036739.700000003
tp1678
sg22
F1.0000000000000284
sg23
I2
sg24
(lp1679
g0
(g394
g2
Ntp1680
Rp1681
(dp1682
g6
g53
sg8
(lp1683
sg11
g49
sg13
Nsg14
g52
sg19
I0
sg18
F1.0
sg22
Nsg20
Nsg23
I1
sg24
Nsg345
g346
sbag0
(g394
g2
Ntp1684
Rp1685
(dp1686
g6
g53
sg8
(lp1687
sg11
g49
sg13
Nsg14
g52
sg19
I0
sg18
F1.0
sg22
Nsg20
Nsg23
I1
sg24
Nsg345
g346
sbag1675
asg345
(lp1688
I118
aF118.33333333333334
aF118.66666666666667
asbag0
(g1
g2
Ntp1689
Rp1690
(dp1691
g6
(lp1692
I3
asg8
(F0.0
(F118.66666666666667
I119
F120.66666666666667
tp1693
tp1694
sg11
(lp1695
NaNaF30271433.616666667
asg13
F1.0
sg14
(lp1696
NaNag0
(g44
g2
Ntp1697
Rp1698
(dp1699
g48
F119.66666666666667
sg11
g49
sg8
(lp1700
sg51
I54
sg13
Nsg14
g52
sg24
Nsg22
Nsg6
g53
sg18
F1.0
sg19
I0
sg20
Nsg54
F120.66666666666667
sg23
I0
sg55
g56
sg345
g346
sg347
F118.66666666666667
sbasg16
F0.1358695652173913
sg17
I1
sg18
F0.1358695652173913
sg19
I1
sg20
(F0.6666666666666666
F30271433.616666667
tp1701
sg22
F1.0000000000000284
sg23
I2
sg24
(lp1702
g0
(g394
g2
Ntp1703
Rp1704
(dp1705
g6
g53
sg8
(lp1706
sg11
g49
sg13
Nsg14
g52
sg19
I0
sg18
F1.0
sg22
Nsg20
Nsg23
I1
sg24
Nsg345
g346
sbag0
(g394
g2
Ntp1707
Rp1708
(dp1709
g6
g53
sg8
(lp1710
sg11
g49
sg13
Nsg14
g52
sg19
I0
sg18
F1.0
sg22
Nsg20
Nsg23
I1
sg24
Nsg345
g346
sbag1698
asg345
(lp1711
I119
aF119.33333333333334
aF119.66666666666667
asbasg345
(lp1712
I118
aI119
asbasg345
(lp1713
I116
aI118
asbasg345
(lp1714
F112.0
aI116
asbag0
(g1
g2
Ntp1715
Rp1716
(dp1717
g6
(lp1718
I3
aI2
aI2
aI2
asg8
(F0.0
(F119.66666666666667
I120
F140.0
tp1719
tp1720
sg11
(lp1721
F30463270.383333325
aF31375515.433333334
asg13
F1.0
sg14
(lp1722
Nag0
(g44
g2
Ntp1723
Rp1724
(dp1725
g48
F124.0
sg11
g49
sg8
(lp1726
sg51
I58
sg13
Nsg14
g52
sg24
Nsg22
Nsg6
g53
sg18
F1.0
sg19
I0
sg20
Nsg54
F140.0
sg23
I0
sg55
g56
sg345
g346
sg347
F123.0
sbasg16
F3.339336265907148e-06
sg17
I1
sg18
F3.339336265907148e-06
sg19
I4
sg20
(F0.0
F30463270.383333325
tp1727
sg22
F8.0
sg23
I2
sg24
(lp1728
g0
(g1
g2
Ntp1729
Rp1730
(dp1731
g6
(lp1732
I3
aI2
aI2
asg8
(F0.0
(F119.66666666666667
I120
F124.0
tp1733
tp1734
sg11
(lp1735
F30463270.383333325
aF30895923.516666666
asg13
F1.0
sg14
(lp1736
Nag0
(g44
g2
Ntp1737
Rp1738
(dp1739
g48
F122.0
sg11
g49
sg8
(lp1740
sg51
I56
sg13
Nsg14
g52
sg24
Nsg22
Nsg6
g53
sg18
F1.0
sg19
I0
sg20
Nsg54
F123.0
sg23
I0
sg55
g56
sg345
g346
sg347
F120.66666666666667
sbasg16
F0.0001854906786194461
sg17
I1
sg18
F0.0001854906786194461
sg19
I3
sg20
(F0.5
F30895923.516666666
tp1741
sg22
F4.0
sg23
I2
sg24
(lp1742
g0
(g1
g2
Ntp1743
Rp1744
(dp1745
g6
(lp1746
I3
aI2
asg8
(F0.0
(F119.66666666666667
I120
F122.0
tp1747
tp1748
sg11
(lp1749
NaNasg13
F1.0
sg14
(lp1750
NaNasg16
F0.007614972235349716
sg17
I1
sg18
F0.007614972235349716
sg19
I2
sg20
(F0.3333333333333333
F30518372.43333333
tp1751
sg22
F2.000000000000057
sg23
I2
sg24
(lp1752
g0
(g1
g2
Ntp1753
Rp1754
(dp1755
g6
(lp1756
I3
asg8
(F0.0
(F119.66666666666667
I120
F122.0
tp1757
tp1758
sg11
(lp1759
NaNaF30518372.43333333
asg13
F1.0
sg14
(lp1760
NaNag0
(g44
g2
Ntp1761
Rp1762
(dp1763
g48
F120.66666666666667
sg11
g49
sg8
(lp1764
sg51
I55
sg13
Nsg14
g52
sg24
Nsg22
Nsg6
g53
sg18
F1.0
sg19
I0
sg20
Nsg54
F122.0
sg23
I0
sg55
g56
sg345
g346
sg347
F119.66666666666667
sbasg16
F0.1358695652173913
sg17
I1
sg18
F0.1358695652173913
sg19
I1
sg20
(F0.6666666666666666
F30518372.43333333
tp1765
sg22
F1.0000000000000284
sg23
I2
sg24
(lp1766
g0
(g394
g2
Ntp1767
Rp1768
(dp1769
g6
g53
sg8
(lp1770
sg11
g49
sg13
Nsg14
g52
sg19
I0
sg18
F1.0
sg22
Nsg20
Nsg23
I1
sg24
Nsg345
g346
sbag0
(g394
g2
Ntp1771
Rp1772
(dp1773
g6
g53
sg8
(lp1774
sg11
g49
sg13
Nsg14
g52
sg19
I0
sg18
F1.0
sg22
Nsg20
Nsg23
I1
sg24
Nsg345
g346
sbag1762
asg345
(lp1775
I120
aF120.33333333333334
aF120.66666666666667
asbag0
(g394
g2
Ntp1776
Rp1777
(dp1778
g6
g53
sg8
(lp1779
sg11
g49
sg13
Nsg14
g52
sg19
I0
sg18
F1.0
sg22
Nsg20
Nsg23
I1
sg24
Nsg345
g346
sbasg345
(lp1780
I120
aF121.00000000000003
asbag0
(g1
g2
Ntp1781
Rp1782
(dp1783
g6
(lp1784
I2
asg8
(F0.0
(F120.66666666666667
F122.0
F124.0
tp1785
tp1786
sg11
(lp1787
F30895923.516666666
aF31112250.083333336
asg13
F1.0
sg14
(lp1788
g1738
ag0
(g44
g2
Ntp1789
Rp1790
(dp1791
g48
F123.0
sg11
g49
sg8
(lp1792
sg51
I57
sg13
Nsg14
g52
sg24
Nsg22
Nsg6
g53
sg18
F1.0
sg19
I0
sg20
Nsg54
F124.0
sg23
I0
sg55
g56
sg345
g346
sg347
F122.0
sbasg16
F0.06182065217391304
sg17
I1
sg18
F0.06182065217391304
sg19
I1
sg20
(F0.0
F30895923.516666666
tp1793
sg22
F2.0
sg23
I2
sg24
(lp1794
g1738
ag1790
asg345
(lp1795
F122.0
aF123.0
asbasg345
(lp1796
I120
aF122.0
asbag1724
asg345
(lp1797
I120
aF124.0
asbasg345
(lp1798
F112.0
aI120
asbasg345
(lp1799
F96.0
aF112.0
asbasg345
(lp1800
F64.0
aF96.0
asbasg345
(lp1801
F0.0
aF64.0
asbag0
(g1
g2
Ntp1802
Rp1803
(dp1804
g6
(lp1805
I3
aI2
aI2
aI2
aI2
aI2
aI2
aI2
asg8
(F0.0
(F124.0
F128.0
F260.0
tp1806
tp1807
sg11
(lp1808
F32569393.183333375
aF48046130.45666666
asg13
F1.0
sg14
(lp1809
NaNasg16
F1.6079892077686948e-76
sg17
I1
sg18
F1.6079892077686948e-76
sg19
I8
sg20
(F0.0
F32569393.183333375
tp1810
sg22
F128.0
sg23
I2
sg24
(lp1811
g0
(g1
g2
Ntp1812
Rp1813
(dp1814
g6
(lp1815
I3
aI2
aI2
aI2
aI2
aI2
aI2
asg8
(F0.0
(F124.0
F128.0
F194.0
tp1816
tp1817
sg11
(lp1818
F32569393.183333375
aF40246945.483333305
asg13
F1.0
sg14
(lp1819
NaNasg16
F1.7891152329362173e-37
sg17
I1
sg18
F1.7891152329362173e-37
sg19
I7
sg20
(F0.0
F32569393.183333375
tp1820
sg22
F64.0
sg23
I2
sg24
(lp1821
g0
(g1
g2
Ntp1822
Rp1823
(dp1824
g6
(lp1825
I3
aI2
aI2
aI2
aI2
aI2
asg8
(F0.5
(F124.0
F144.0
F165.0
tp1826
tp1827
sg11
(lp1828
F32569393.183333375
aF36208849.572222255
asg13
F1.0
sg14
(lp1829
NaNasg16
F1.9552676993557697e-16
sg17
I1
sg18
F1.9552676993557697e-16
sg19
I6
sg20
(F0.5
F36208849.572222255
tp1830
sg22
F32.0
sg23
I2
sg24
(lp1831
g0
(g1
g2
Ntp1832
Rp1833
(dp1834
g6
(lp1835
I2
aI2
asg8
(F0.75
(F124.0
F140.0
F148.66666666666666
tp1836
tp1837
sg11
(lp1838
NaNasg13
F1.0
sg14
(lp1839
NaNasg16
F0.0017566356406545367
sg17
I1
sg18
F0.0017566356406545367
sg19
I2
sg20
(F0.75
F35302046.7
tp1840
sg22
Nsg23
I2
sg24
(lp1841
g0
(g394
g2
Ntp1842
Rp1843
(dp1844
g6
g53
sg8
(lp1845
sg11
g49
sg13
Nsg14
g52
sg19
I0
sg18
F1.0
sg22
Nsg20
Nsg23
I1
sg24
Nsg345
g346
sbag0
(g1
g2
Ntp1846
Rp1847
(dp1848
g6
(lp1849
I2
asg8
(F0.5
(F124.0
F140.0
F148.66666666666666
tp1850
tp1851
sg11
(lp1852
NaF35302046.7
asg13
F1.0
sg14
(lp1853
Nag0
(g44
g2
Ntp1854
Rp1855
(dp1856
g48
F140.0
sg11
g49
sg8
(lp1857
sg51
I59
sg13
Nsg14
g52
sg24
Nsg22
Nsg6
g53
sg18
F1.0
sg19
I0
sg20
Nsg54
F148.66666666666666
sg23
I0
sg55
g56
sg345
g346
sg347
F124.0
sbasg16
F0.025475543478260868
sg17
I1
sg18
F0.025475543478260868
sg19
I1
sg20
(F0.5
F35302046.7
tp1858
sg22
Nsg23
I2
sg24
(lp1859
g0
(g394
g2
Ntp1860
Rp1861
(dp1862
g6
g53
sg8
(lp1863
sg11
g49
sg13
Nsg14
g52
sg19
I0
sg18
F1.0
sg22
Nsg20
Nsg23
I1
sg24
Nsg345
g346
sbag1855
asg345
(lp1864
NaF140.0
asbasg345
(lp1865
NaNasbag0
(g1
g2
Ntp1866
Rp1867
(dp1868
g6
(lp1869
I3
aI2
aI2
aI2
aI2
asg8
(F0.0
(F140.0
F144.0
F165.0
tp1870
tp1871
sg11
(lp1872
F36208849.572222255
aF38028577.766666695
asg13
F1.0
sg14
(lp1873
NaNasg16
F2.8249082849461636e-13
sg17
I1
sg18
F2.8249082849461636e-13
sg19
I5
sg20
(F0.0
F36208849.572222255
tp1874
sg22
F16.0
sg23
I2
sg24
(lp1875
g0
(g1
g2
Ntp1876
Rp1877
(dp1878
g6
(lp1879
I3
aI2
aI2
aI2
asg8
(F0.5
(F140.0
I148
F152.66666666666666
tp1880
tp1881
sg11
(lp1882
F36208849.572222255
aF37231978.99444445
asg13
F1.0
sg14
(lp1883
NaNasg16
F1.4374989150612521e-06
sg17
I1
sg18
F1.4374989150612521e-06
sg19
I4
sg20
(F0.5
F37231978.99444445
tp1884
sg22
F8.0
sg23
I2
sg24
(lp1885
g0
(g394
g2
Ntp1886
Rp1887
(dp1888
g6
g53
sg8
(lp1889
sg11
g49
sg13
Nsg14
g52
sg19
I0
sg18
F1.0
sg22
Nsg20
Nsg23
I1
sg24
Nsg345
g346
sbag0
(g1
g2
Ntp1890
Rp1891
(dp1892
g6
(lp1893
I3
aI2
aI2
asg8
(F0.0
(F140.0
I148
F152.66666666666666
tp1894
tp1895
sg11
(lp1896
F37231978.99444445
aF37743543.70555555
asg13
F1.0
sg14
(lp1897
NaNasg16
F2.0847274906109984e-05
sg17
I1
sg18
F2.0847274906109984e-05
sg19
I3
sg20
(F0.0
F37231978.99444445
tp1898
sg22
I4
sg23
I2
sg24
(lp1899
g0
(g1
g2
Ntp1900
Rp1901
(dp1902
g6
(lp1903
I3
aI2
asg8
(F0.0
(F140.0
I148
F150.66666666666666
tp1904
tp1905
sg11
(lp1906
F37231978.99444445
aF37480958.62777778
asg13
F1.0
sg14
(lp1907
NaNasg16
F0.0072738535844908345
sg17
I1
sg18
F0.0072738535844908345
sg19
I2
sg20
(F0.3333333333333333
F37397965.41666667
tp1908
sg22
I2
sg23
I2
sg24
(lp1909
g0
(g1
g2
Ntp1910
Rp1911
(dp1912
g6
(lp1913
I3
asg8
(F0.0
(F140.0
I148
F149.66666666666666
tp1914
tp1915
sg11
(lp1916
NaNaF37397965.41666667
asg13
F1.0
sg14
(lp1917
NaNag0
(g44
g2
Ntp1918
Rp1919
(dp1920
g48
F148.66666666666666
sg11
g49
sg8
(lp1921
sg51
I60
sg13
Nsg14
g52
sg24
Nsg22
Nsg6
g53
sg18
F1.0
sg19
I0
sg20
Nsg54
F149.66666666666666
sg23
I0
sg55
g56
sg345
g346
sg347
F140.0
sbasg16
F0.1358695652173913
sg17
I1
sg18
F0.1358695652173913
sg19
I1
sg20
(F0.6666666666666666
F37397965.41666667
tp1922
sg22
F0.9999999999999432
sg23
I2
sg24
(lp1923
g0
(g394
g2
Ntp1924
Rp1925
(dp1926
g6
g53
sg8
(lp1927
sg11
g49
sg13
Nsg14
g52
sg19
I0
sg18
F1.0
sg22
Nsg20
Nsg23
I1
sg24
Nsg345
g346
sbag0
(g394
g2
Ntp1928
Rp1929
(dp1930
g6
g53
sg8
(lp1931
sg11
g49
sg13
Nsg14
g52
sg19
I0
sg18
F1.0
sg22
Nsg20
Nsg23
I1
sg24
Nsg345
g346
sbag1919
asg345
(lp1932
I148
aF148.33333333333331
aF148.66666666666666
asbag0
(g1
g2
Ntp1933
Rp1934
(dp1935
g6
(lp1936
I3
asg8
(F0.0
(F148.66666666666666
I149
F150.66666666666666
tp1937
tp1938
sg11
(lp1939
NaNaF37646945.05
asg13
F1.0
sg14
(lp1940
NaNag0
(g44
g2
Ntp1941
Rp1942
(dp1943
g48
F149.66666666666666
sg11
g49
sg8
(lp1944
sg51
I61
sg13
Nsg14
g52
sg24
Nsg22
Nsg6
g53
sg18
F1.0
sg19
I0
sg20
Nsg54
F150.66666666666666
sg23
I0
sg55
g56
sg345
g346
sg347
F148.66666666666666
sbasg16
F0.1358695652173913
sg17
I1
sg18
F0.1358695652173913
sg19
I1
sg20
(F0.6666666666666666
F37646945.05
tp1945
sg22
F0.9999999999999432
sg23
I2
sg24
(lp1946
g0
(g394
g2
Ntp1947
Rp1948
(dp1949
g6
g53
sg8
(lp1950
sg11
g49
sg13
Nsg14
g52
sg19
I0
sg18
F1.0
sg22
Nsg20
Nsg23
I1
sg24
Nsg345
g346
sbag0
(g394
g2
Ntp1951
Rp1952
(dp1953
g6
g53
sg8
(lp1954
sg11
g49
sg13
Nsg14
g52
sg19
I0
sg18
F1.0
sg22
Nsg20
Nsg23
I1
sg24
Nsg345
g346
sbag1942
asg345
(lp1955
I149
aF149.33333333333331
aF149.66666666666666
asbasg345
(lp1956
I148
aI149
asbag0
(g1
g2
Ntp1957
Rp1958
(dp1959
g6
(lp1960
I3
aI2
asg8
(F0.0
(F149.66666666666666
I150
F152.66666666666666
tp1961
tp1962
sg11
(lp1963
F37743543.70555555
aF37965992.72222222
asg13
F1.0
sg14
(lp1964
NaNasg16
F0.0072738535844908345
sg17
I1
sg18
F0.0072738535844908345
sg19
I2
sg20
(F0.3333333333333333
F37891843.05
tp1965
sg22
I2
sg23
I2
sg24
(lp1966
g0
(g1
g2
Ntp1967
Rp1968
(dp1969
g6
(lp1970
I3
asg8
(F0.0
(F149.66666666666666
I150
F151.66666666666666
tp1971
tp1972
sg11
(lp1973
NaNaF37891843.05
asg13
F1.0
sg14
(lp1974
NaNag0
(g44
g2
Ntp1975
Rp1976
(dp1977
g48
F150.66666666666666
sg11
g49
sg8
(lp1978
sg51
I62
sg13
Nsg14
g52
sg24
Nsg22
Nsg6
g53
sg18
F1.0
sg19
I0
sg20
Nsg54
F151.66666666666666
sg23
I0
sg55
g56
sg345
g346
sg347
F149.66666666666666
sbasg16
F0.1358695652173913
sg17
I1
sg18
F0.1358695652173913
sg19
I1
sg20
(F0.6666666666666666
F37891843.05
tp1979
sg22
F0.9999999999999432
sg23
I2
sg24
(lp1980
g0
(g394
g2
Ntp1981
Rp1982
(dp1983
g6
g53
sg8
(lp1984
sg11
g49
sg13
Nsg14
g52
sg19
I0
sg18
F1.0
sg22
Nsg20
Nsg23
I1
sg24
Nsg345
g346
sbag0
(g394
g2
Ntp1985
Rp1986
(dp1987
g6
g53
sg8
(lp1988
sg11
g49
sg13
Nsg14
g52
sg19
I0
sg18
F1.0
sg22
Nsg20
Nsg23
I1
sg24
Nsg345
g346
sbag1976
asg345
(lp1989
I150
aF150.33333333333331
aF150.66666666666666
asbag0
(g1
g2
Ntp1990
Rp1991
(dp1992
g6
(lp1993
I3
asg8
(F0.0
(F150.66666666666666
I151
F152.66666666666666
tp1994
tp1995
sg11
(lp1996
NaNaF38114292.06666666
asg13
F1.0
sg14
(lp1997
NaNag0
(g44
g2
Ntp1998
Rp1999
(dp2000
g48
F151.66666666666666
sg11
g49
sg8
(lp2001
sg51
I63
sg13
Nsg14
g52
sg24
Nsg22
Nsg6
g53
sg18
F1.0
sg19
I0
sg20
Nsg54
F152.66666666666666
sg23
I0
sg55
g56
sg345
g346
sg347
F150.66666666666666
sbasg16
F0.1358695652173913
sg17
I1
sg18
F0.1358695652173913
sg19
I1
sg20
(F0.6666666666666666
F38114292.06666666
tp2002
sg22
F0.9999999999999432
sg23
I2
sg24
(lp2003
g0
(g394
g2
Ntp2004
Rp2005
(dp2006
g6
g53
sg8
(lp2007
sg11
g49
sg13
Nsg14
g52
sg19
I0
sg18
F1.0
sg22
Nsg20
Nsg23
I1
sg24
Nsg345
g346
sbag0
(g394
g2
Ntp2008
Rp2009
(dp2010
g6
g53
sg8
(lp2011
sg11
g49
sg13
Nsg14
g52
sg19
I0
sg18
F1.0
sg22
Nsg20
Nsg23
I1
sg24
Nsg345
g346
sbag1999
asg345
(lp2012
I151
aF151.33333333333331
aF151.66666666666666
asbasg345
(lp2013
I150
aI151
asbasg345
(lp2014
I148
aI150
asbasg345
(lp2015
F144.0
aI148
asbag0
(g1
g2
Ntp2016
Rp2017
(dp2018
g6
(lp2019
I3
aI2
aI2
aI2
asg8
(F0.0
(F151.66666666666666
I152
F165.0
tp2020
tp2021
sg11
(lp2022
F38028577.766666695
aF39197965.71666667
asg13
F1.0
sg14
(lp2023
Nag0
(g44
g2
Ntp2024
Rp2025
(dp2026
g48
F156.0
sg11
g49
sg8
(lp2027
sg51
I67
sg13
Nsg14
g52
sg24
Nsg22
Nsg6
g53
sg18
F1.0
sg19
I0
sg20
Nsg54
F165.0
sg23
I0
sg55
g56
sg345
g346
sg347
F154.66666666666666
sbasg16
F4.987428046599146e-07
sg17
I1
sg18
F4.987428046599146e-07
sg19
I4
sg20
(F0.0
F38028577.766666695
tp2028
sg22
F8.0
sg23
I2
sg24
(lp2029
g0
(g1
g2
Ntp2030
Rp2031
(dp2032
g6
(lp2033
I3
aI2
aI2
asg8
(F0.0
(F151.66666666666666
I152
F156.0
tp2034
tp2035
sg11
(lp2036
F38028577.766666695
aF38708169.71666667
asg13
F1.0
sg14
(lp2037
Nag0
(g44
g2
Ntp2038
Rp2039
(dp2040
g48
F154.0
sg11
g49
sg8
(lp2041
sg51
I65
sg13
Nsg14
g52
sg24
Nsg22
Nsg6
g53
sg18
F1.0
sg19
I0
sg20
Nsg54
F154.66666666666666
sg23
I0
sg55
g56
sg345
g346
sg347
F152.66666666666666
sbasg16
F2.7703751262618655e-05
sg17
I1
sg18
F2.7703751262618655e-05
sg19
I3
sg20
(F0.5
F38708169.71666667
tp2042
sg22
F4.0
sg23
I2
sg24
(lp2043
g0
(g1
g2
Ntp2044
Rp2045
(dp2046
g6
(lp2047
I3
aI2
asg8
(F0.0
(F151.66666666666666
I152
F154.0
tp2048
tp2049
sg11
(lp2050
NaNasg13
F1.0
sg14
(lp2051
NaNasg16
F0.007614972235349716
sg17
I1
sg18
F0.007614972235349716
sg19
I2
sg20
(F0.3333333333333333
F38367353.33333333
tp2052
sg22
F1.9999999999998863
sg23
I2
sg24
(lp2053
g0
(g1
g2
Ntp2054
Rp2055
(dp2056
g6
(lp2057
I3
asg8
(F0.0
(F151.66666666666666
I152
F154.0
tp2058
tp2059
sg11
(lp2060
NaNaF38367353.33333333
asg13
F1.0
sg14
(lp2061
NaNag0
(g44
g2
Ntp2062
Rp2063
(dp2064
g48
F152.66666666666666
sg11
g49
sg8
(lp2065
sg51
I64
sg13
Nsg14
g52
sg24
Nsg22
Nsg6
g53
sg18
F1.0
sg19
I0
sg20
Nsg54
F154.0
sg23
I0
sg55
g56
sg345
g346
sg347
F151.66666666666666
sbasg16
F0.1358695652173913
sg17
I1
sg18
F0.1358695652173913
sg19
I1
sg20
(F0.6666666666666666
F38367353.33333333
tp2066
sg22
F0.9999999999999432
sg23
I2
sg24
(lp2067
g0
(g394
g2
Ntp2068
Rp2069
(dp2070
g6
g53
sg8
(lp2071
sg11
g49
sg13
Nsg14
g52
sg19
I0
sg18
F1.0
sg22
Nsg20
Nsg23
I1
sg24
Nsg345
g346
sbag0
(g394
g2
Ntp2072
Rp2073
(dp2074
g6
g53
sg8
(lp2075
sg11
g49
sg13
Nsg14
g52
sg19
I0
sg18
F1.0
sg22
Nsg20
Nsg23
I1
sg24
Nsg345
g346
sbag2063
asg345
(lp2076
I152
aF152.33333333333331
aF152.66666666666666
asbag0
(g394
g2
Ntp2077
Rp2078
(dp2079
g6
g53
sg8
(lp2080
sg11
g49
sg13
Nsg14
g52
sg19
I0
sg18
F1.0
sg22
Nsg20
Nsg23
I1
sg24
Nsg345
g346
sbasg345
(lp2081
I152
aF152.99999999999994
asbag0
(g1
g2
Ntp2082
Rp2083
(dp2084
g6
(lp2085
I3
aI2
asg8
(F0.0
(F152.66666666666666
F154.0
F156.0
tp2086
tp2087
sg11
(lp2088
F38708169.71666667
aF39047965.691666655
asg13
F1.0
sg14
(lp2089
g2039
aNasg16
F0.00923315383536153
sg17
I1
sg18
F0.00923315383536153
sg19
I2
sg20
(F0.0
F38708169.71666667
tp2090
sg22
F1.9999999999998863
sg23
I2
sg24
(lp2091
g0
(g1
g2
Ntp2092
Rp2093
(dp2094
g6
(lp2095
I3
asg8
(F0.0
(F152.66666666666666
F154.0
F156.0
tp2096
tp2097
sg11
(lp2098
F38708169.71666667
aF38821435.041666664
aF38934700.36666666
asg13
F1.0
sg14
(lp2099
g2039
aNag0
(g44
g2
Ntp2100
Rp2101
(dp2102
g48
F154.66666666666666
sg11
g49
sg8
(lp2103
sg51
I66
sg13
Nsg14
g52
sg24
Nsg22
Nsg6
g53
sg18
F1.0
sg19
I0
sg20
Nsg54
F156.0
sg23
I0
sg55
g56
sg345
g346
sg347
F154.0
sbasg16
F0.16474184782608695
sg17
I1
sg18
F0.16474184782608695
sg19
I1
sg20
(F0.0
F38708169.71666667
tp2104
sg22
F0.9999999999999432
sg23
I2
sg24
(lp2105
g2039
ag0
(g394
g2
Ntp2106
Rp2107
(dp2108
g6
g53
sg8
(lp2109
sg11
g49
sg13
Nsg14
g52
sg19
I0
sg18
F1.0
sg22
Nsg20
Nsg23
I1
sg24
Nsg345
g346
sbag2101
asg345
(lp2110
F154.0
aF154.33333333333331
aF154.66666666666666
asbag0
(g394
g2
Ntp2111
Rp2112
(dp2113
g6
g53
sg8
(lp2114
sg11
g49
sg13
Nsg14
g52
sg19
I0
sg18
F1.0
sg22
Nsg20
Nsg23
I1
sg24
Nsg345
g346
sbasg345
(lp2115
F154.0
aF154.99999999999994
asbasg345
(lp2116
I152
aF154.0
asbag2025
asg345
(lp2117
I152
aF156.0
asbasg345
(lp2118
F144.0
aI152
asbasg345
(lp2119
F128.0
aF144.0
asbag0
(g1
g2
Ntp2120
Rp2121
(dp2122
g6
(lp2123
I3
aI2
aI2
aI2
aI2
aI2
asg8
(F0.0
(F156.0
F160.0
F194.0
tp2124
tp2125
sg11
(lp2126
F40246945.483333305
aF44178782.873333365
asg13
F1.0
sg14
(lp2127
NaNasg16
F2.3222656802599206e-21
sg17
I1
sg18
F2.3222656802599206e-21
sg19
I6
sg20
(F0.0
F40246945.483333305
tp2128
sg22
F32.0
sg23
I2
sg24
(lp2129
g0
(g1
g2
Ntp2130
Rp2131
(dp2132
g6
(lp2133
I3
aI2
aI2
aI2
aI2
asg8
(F0.0
(F156.0
F160.0
F180.0
tp2134
tp2135
sg11
(lp2136
F40246945.483333305
aF42153068.25
asg13
F1.0
sg14
(lp2137
Nag0
(g44
g2
Ntp2138
Rp2139
(dp2140
g48
F168.0
sg11
g49
sg8
(lp2141
sg51
I71
sg13
Nsg14
g52
sg24
Nsg22
Nsg6
g53
sg18
F1.0
sg19
I0
sg20
Nsg54
F169.66666666666666
sg23
I0
sg55
g56
sg345
g346
sg347
F167.0
sbasg16
F7.691617535052991e-12
sg17
I1
sg18
F7.691617535052991e-12
sg19
I5
sg20
(F0.0
F40246945.483333305
tp2142
sg22
F16.0
sg23
I2
sg24
(lp2143
g0
(g1
g2
Ntp2144
Rp2145
(dp2146
g6
(lp2147
I2
aI2
aI2
asg8
(F0.5
(F156.0
F164.0
F168.0
tp2148
tp2149
sg11
(lp2150
F40246945.483333305
aF41185721.14999999
asg13
F1.0
sg14
(lp2151
NaNasg16
F4.278932699971314e-05
sg17
I1
sg18
F4.278932699971314e-05
sg19
I3
sg20
(F0.5
F41185721.14999999
tp2152
sg22
F8.0
sg23
I2
sg24
(lp2153
g0
(g394
g2
Ntp2154
Rp2155
(dp2156
g6
g53
sg8
(lp2157
sg11
g49
sg13
Nsg14
g52
sg19
I0
sg18
F1.0
sg22
Nsg20
Nsg23
I1
sg24
Nsg345
g346
sbag0
(g1
g2
Ntp2158
Rp2159
(dp2160
g6
(lp2161
I2
aI2
asg8
(F0.5
(F156.0
F166.0
F168.0
tp2162
tp2163
sg11
(lp2164
F41185721.14999999
aF41655108.983333334
asg13
F1.0
sg14
(lp2165
Nag0
(g44
g2
Ntp2166
Rp2167
(dp2168
g48
F166.0
sg11
g49
sg8
(lp2169
sg51
I69
sg13
Nsg14
g52
sg24
Nsg22
Nsg6
g53
sg18
F1.0
sg19
I0
sg20
Nsg54
F167.0
sg23
I0
sg55
g56
sg345
g346
sg347
F165.0
sbasg16
F0.0006205506339268744
sg17
I1
sg18
F0.0006205506339268744
sg19
I2
sg20
(F0.5
F41655108.983333334
tp2170
sg22
F4.0
sg23
I2
sg24
(lp2171
g0
(g1
g2
Ntp2172
Rp2173
(dp2174
g6
(lp2175
I2
asg8
(F0.5
(F156.0
F165.0
F166.0
tp2176
tp2177
sg11
(lp2178
NaF41397966.08333333
asg13
F1.0
sg14
(lp2179
Nag0
(g44
g2
Ntp2180
Rp2181
(dp2182
g48
F165.0
sg11
g49
sg8
(lp2183
sg51
I68
sg13
Nsg14
g52
sg24
Nsg22
Nsg6
g53
sg18
F1.0
sg19
I0
sg20
Nsg54
F166.0
sg23
I0
sg55
g56
sg345
g346
sg347
F156.0
sbasg16
F0.025475543478260868
sg17
I1
sg18
F0.025475543478260868
sg19
I1
sg20
(F0.5
F41397966.08333333
tp2184
sg22
Nsg23
I2
sg24
(lp2185
g0
(g394
g2
Ntp2186
Rp2187
(dp2188
g6
g53
sg8
(lp2189
sg11
g49
sg13
Nsg14
g52
sg19
I0
sg18
F1.0
sg22
Nsg20
Nsg23
I1
sg24
Nsg345
g346
sbag2181
asg345
(lp2190
NaF165.0
asbag0
(g1
g2
Ntp2191
Rp2192
(dp2193
g6
(lp2194
I2
asg8
(F0.0
(F165.0
F166.0
F168.0
tp2195
tp2196
sg11
(lp2197
F41655108.983333334
aF41889802.900000006
asg13
F1.0
sg14
(lp2198
g2167
ag0
(g44
g2
Ntp2199
Rp2200
(dp2201
g48
F167.0
sg11
g49
sg8
(lp2202
sg51
I70
sg13
Nsg14
g52
sg24
Nsg22
Nsg6
g53
sg18
F1.0
sg19
I0
sg20
Nsg54
F168.0
sg23
I0
sg55
g56
sg345
g346
sg347
F166.0
sbasg16
F0.06182065217391304
sg17
I1
sg18
F0.06182065217391304
sg19
I1
sg20
(F0.0
F41655108.983333334
tp2203
sg22
F2.0
sg23
I2
sg24
(lp2204
g2167
ag2200
asg345
(lp2205
F166.0
aF167.0
asbasg345
(lp2206
F164.0
aF166.0
asbasg345
(lp2207
F160.0
aF164.0
asbag0
(g1
g2
Ntp2208
Rp2209
(dp2210
g6
(lp2211
I3
aI2
aI2
aI2
asg8
(F0.0
(F167.0
F168.0
F180.0
tp2212
tp2213
sg11
(lp2214
F42153068.25
aF43130619.43333334
asg13
F1.0
sg14
(lp2215
g2139
ag0
(g44
g2
Ntp2216
Rp2217
(dp2218
g48
F172.0
sg11
g49
sg8
(lp2219
sg51
I74
sg13
Nsg14
g52
sg24
Nsg22
Nsg6
g53
sg18
F1.0
sg19
I0
sg20
Nsg54
F180.0
sg23
I0
sg55
g56
sg345
g346
sg347
F170.66666666666666
sbasg16
F4.5620710154458924e-07
sg17
I1
sg18
F4.5620710154458924e-07
sg19
I4
sg20
(F0.0
F42153068.25
tp2220
sg22
F8.0
sg23
I2
sg24
(lp2221
g0
(g1
g2
Ntp2222
Rp2223
(dp2224
g6
(lp2225
I3
aI2
aI2
asg8
(F0.0
(F167.0
F168.0
F172.0
tp2226
tp2227
sg11
(lp2228
F42153068.25
aF42581639.75
asg13
F1.0
sg14
(lp2229
g2139
aNasg16
F2.534101333862775e-05
sg17
I1
sg18
F2.534101333862775e-05
sg19
I3
sg20
(F0.0
F42153068.25
tp2230
sg22
F4.0
sg23
I2
sg24
(lp2231
g0
(g1
g2
Ntp2232
Rp2233
(dp2234
g6
(lp2235
I3
aI2
asg8
(F0.0
(F167.0
F168.0
F170.66666666666666
tp2236
tp2237
sg11
(lp2238
F42153068.25
aF42367354.0
asg13
F1.0
sg14
(lp2239
g2139
aNasg16
F0.008445696479206049
sg17
I1
sg18
F0.008445696479206049
sg19
I2
sg20
(F0.0
F42153068.25
tp2240
sg22
F2.0
sg23
I2
sg24
(lp2241
g2139
ag0
(g1
g2
Ntp2242
Rp2243
(dp2244
g6
(lp2245
I3
asg8
(F0.0
(F168.0
I169
F170.66666666666666
tp2246
tp2247
sg11
(lp2248
NaNaF42510211.16666667
asg13
F1.0
sg14
(lp2249
NaNag0
(g44
g2
Ntp2250
Rp2251
(dp2252
g48
F169.66666666666666
sg11
g49
sg8
(lp2253
sg51
I72
sg13
Nsg14
g52
sg24
Nsg22
Nsg6
g53
sg18
F1.0
sg19
I0
sg20
Nsg54
F170.66666666666666
sg23
I0
sg55
g56
sg345
g346
sg347
F168.0
sbasg16
F0.1358695652173913
sg17
I1
sg18
F0.1358695652173913
sg19
I1
sg20
(F0.6666666666666666
F42510211.16666667
tp2254
sg22
F0.9999999999999432
sg23
I2
sg24
(lp2255
g0
(g394
g2
Ntp2256
Rp2257
(dp2258
g6
g53
sg8
(lp2259
sg11
g49
sg13
Nsg14
g52
sg19
I0
sg18
F1.0
sg22
Nsg20
Nsg23
I1
sg24
Nsg345
g346
sbag0
(g394
g2
Ntp2260
Rp2261
(dp2262
g6
g53
sg8
(lp2263
sg11
g49
sg13
Nsg14
g52
sg19
I0
sg18
F1.0
sg22
Nsg20
Nsg23
I1
sg24
Nsg345
g346
sbag2251
asg345
(lp2264
I169
aF169.33333333333331
aF169.66666666666666
asbasg345
(lp2265
F168.0
aI169
asbag0
(g1
g2
Ntp2266
Rp2267
(dp2268
g6
(lp2269
I3
aI2
asg8
(F0.0
(F169.66666666666666
I170
F172.0
tp2270
tp2271
sg11
(lp2272
NaNasg13
F1.0
sg14
(lp2273
NaNasg16
F0.007614972235349716
sg17
I1
sg18
F0.007614972235349716
sg19
I2
sg20
(F0.3333333333333333
F42844905.099999994
tp2274
sg22
F1.9999999999998863
sg23
I2
sg24
(lp2275
g0
(g1
g2
Ntp2276
Rp2277
(dp2278
g6
(lp2279
I3
asg8
(F0.0
(F169.66666666666666
I170
F172.0
tp2280
tp2281
sg11
(lp2282
NaNaF42844905.099999994
asg13
F1.0
sg14
(lp2283
NaNag0
(g44
g2
Ntp2284
Rp2285
(dp2286
g48
F170.66666666666666
sg11
g49
sg8
(lp2287
sg51
I73
sg13
Nsg14
g52
sg24
Nsg22
Nsg6
g53
sg18
F1.0
sg19
I0
sg20
Nsg54
F172.0
sg23
I0
sg55
g56
sg345
g346
sg347
F169.66666666666666
sbasg16
F0.1358695652173913
sg17
I1
sg18
F0.1358695652173913
sg19
I1
sg20
(F0.6666666666666666
F42844905.099999994
tp2288
sg22
F0.9999999999999432
sg23
I2
sg24
(lp2289
g0
(g394
g2
Ntp2290
Rp2291
(dp2292
g6
g53
sg8
(lp2293
sg11
g49
sg13
Nsg14
g52
sg19
I0
sg18
F1.0
sg22
Nsg20
Nsg23
I1
sg24
Nsg345
g346
sbag0
(g394
g2
Ntp2294
Rp2295
(dp2296
g6
g53
sg8
(lp2297
sg11
g49
sg13
Nsg14
g52
sg19
I0
sg18
F1.0
sg22
Nsg20
Nsg23
I1
sg24
Nsg345
g346
sbag2285
asg345
(lp2298
I170
aF170.33333333333331
aF170.66666666666666
asbag0
(g394
g2
Ntp2299
Rp2300
(dp2301
g6
g53
sg8
(lp2302
sg11
g49
sg13
Nsg14
g52
sg19
I0
sg18
F1.0
sg22
Nsg20
Nsg23
I1
sg24
Nsg345
g346
sbasg345
(lp2303
I170
aF170.99999999999994
asbasg345
(lp2304
F168.0
aI170
asbag2217
asg345
(lp2305
F168.0
aF172.0
asbasg345
(lp2306
F160.0
aF168.0
asbag0
(g1
g2
Ntp2307
Rp2308
(dp2309
g6
(lp2310
I3
aI2
aI2
aI2
aI2
asg8
(F0.0
(F172.0
F176.0
F194.0
tp2311
tp2312
sg11
(lp2313
F44178782.873333365
aF46063272.983333334
asg13
F1.0
sg14
(lp2314
Nag0
(g44
g2
Ntp2315
Rp2316
(dp2317
g48
F184.0
sg11
g49
sg8
(lp2318
sg51
I78
sg13
Nsg14
g52
sg24
Nsg22
Nsg6
g53
sg18
F1.0
sg19
I0
sg20
Nsg54
F186.0
sg23
I0
sg55
g56
sg345
g346
sg347
F182.66666666666666
sbasg16
F7.662562670837822e-10
sg17
I1
sg18
F7.662562670837822e-10
sg19
I5
sg20
(F0.0
F44178782.873333365
tp2319
sg22
F16.0
sg23
I2
sg24
(lp2320
g0
(g1
g2
Ntp2321
Rp2322
(dp2323
g6
(lp2324
I3
aI2
aI2
aI2
asg8
(F0.5
(F172.0
F180.0
F184.0
tp2325
tp2326
sg11
(lp2327
F44178782.873333365
aF45089803.43333334
asg13
F1.0
sg14
(lp2328
Nag0
(g44
g2
Ntp2329
Rp2330
(dp2331
g48
F180.0
sg11
g49
sg8
(lp2332
sg51
I75
sg13
Nsg14
g52
sg24
Nsg22
Nsg6
g53
sg18
F1.0
sg19
I0
sg20
Nsg54
F181.66666666666666
sg23
I0
sg55
g56
sg345
g346
sg347
F172.0
sbasg16
F1.7473592757273889e-06
sg17
I1
sg18
F1.7473592757273889e-06
sg19
I4
sg20
(F0.5
F45089803.43333334
tp2333
sg22
F8.0
sg23
I2
sg24
(lp2334
g0
(g394
g2
Ntp2335
Rp2336
(dp2337
g6
g53
sg8
(lp2338
sg11
g49
sg13
Nsg14
g52
sg19
I0
sg18
F1.0
sg22
Nsg20
Nsg23
I1
sg24
Nsg345
g346
sbag0
(g1
g2
Ntp2339
Rp2340
(dp2341
g6
(lp2342
I3
aI2
aI2
asg8
(F0.0
(F172.0
F180.0
F184.0
tp2343
tp2344
sg11
(lp2345
F45089803.43333334
aF45545313.71333332
asg13
F1.0
sg14
(lp2346
g2330
aNasg16
F2.534101333862775e-05
sg17
I1
sg18
F2.534101333862775e-05
sg19
I3
sg20
(F0.0
F45089803.43333334
tp2347
sg22
F4.0
sg23
I2
sg24
(lp2348
g0
(g1
g2
Ntp2349
Rp2350
(dp2351
g6
(lp2352
I3
aI2
asg8
(F0.0
(F172.0
F180.0
F182.66666666666666
tp2353
tp2354
sg11
(lp2355
F45089803.43333334
aF45317558.57333333
asg13
F1.0
sg14
(lp2356
g2330
aNasg16
F0.008445696479206049
sg17
I1
sg18
F0.008445696479206049
sg19
I2
sg20
(F0.0
F45089803.43333334
tp2357
sg22
F2.0
sg23
I2
sg24
(lp2358
g2330
ag0
(g1
g2
Ntp2359
Rp2360
(dp2361
g6
(lp2362
I3
asg8
(F0.0
(F180.0
I181
F182.66666666666666
tp2363
tp2364
sg11
(lp2365
NaNaF45469395.33333333
asg13
F1.0
sg14
(lp2366
NaNag0
(g44
g2
Ntp2367
Rp2368
(dp2369
g48
F181.66666666666666
sg11
g49
sg8
(lp2370
sg51
I76
sg13
Nsg14
g52
sg24
Nsg22
Nsg6
g53
sg18
F1.0
sg19
I0
sg20
Nsg54
F182.66666666666666
sg23
I0
sg55
g56
sg345
g346
sg347
F180.0
sbasg16
F0.1358695652173913
sg17
I1
sg18
F0.1358695652173913
sg19
I1
sg20
(F0.6666666666666666
F45469395.33333333
tp2371
sg22
F0.9999999999999432
sg23
I2
sg24
(lp2372
g0
(g394
g2
Ntp2373
Rp2374
(dp2375
g6
g53
sg8
(lp2376
sg11
g49
sg13
Nsg14
g52
sg19
I0
sg18
F1.0
sg22
Nsg20
Nsg23
I1
sg24
Nsg345
g346
sbag0
(g394
g2
Ntp2377
Rp2378
(dp2379
g6
g53
sg8
(lp2380
sg11
g49
sg13
Nsg14
g52
sg19
I0
sg18
F1.0
sg22
Nsg20
Nsg23
I1
sg24
Nsg345
g346
sbag2368
asg345
(lp2381
I181
aF181.33333333333331
aF181.66666666666666
asbasg345
(lp2382
F180.0
aI181
asbag0
(g1
g2
Ntp2383
Rp2384
(dp2385
g6
(lp2386
I3
aI2
asg8
(F0.0
(F181.66666666666666
I182
F184.0
tp2387
tp2388
sg11
(lp2389
NaNasg13
F1.0
sg14
(lp2390
NaNasg16
F0.007614972235349716
sg17
I1
sg18
F0.007614972235349716
sg19
I2
sg20
(F0.3333333333333333
F45793885.18333334
tp2391
sg22
F1.9999999999998863
sg23
I2
sg24
(lp2392
g0
(g1
g2
Ntp2393
Rp2394
(dp2395
g6
(lp2396
I3
asg8
(F0.0
(F181.66666666666666
I182
F184.0
tp2397
tp2398
sg11
(lp2399
NaNaF45793885.18333334
asg13
F1.0
sg14
(lp2400
NaNag0
(g44
g2
Ntp2401
Rp2402
(dp2403
g48
F182.66666666666666
sg11
g49
sg8
(lp2404
sg51
I77
sg13
Nsg14
g52
sg24
Nsg22
Nsg6
g53
sg18
F1.0
sg19
I0
sg20
Nsg54
F184.0
sg23
I0
sg55
g56
sg345
g346
sg347
F181.66666666666666
sbasg16
F0.1358695652173913
sg17
I1
sg18
F0.1358695652173913
sg19
I1
sg20
(F0.6666666666666666
F45793885.18333334
tp2405
sg22
F0.9999999999999432
sg23
I2
sg24
(lp2406
g0
(g394
g2
Ntp2407
Rp2408
(dp2409
g6
g53
sg8
(lp2410
sg11
g49
sg13
Nsg14
g52
sg19
I0
sg18
F1.0
sg22
Nsg20
Nsg23
I1
sg24
Nsg345
g346
sbag0
(g394
g2
Ntp2411
Rp2412
(dp2413
g6
g53
sg8
(lp2414
sg11
g49
sg13
Nsg14
g52
sg19
I0
sg18
F1.0
sg22
Nsg20
Nsg23
I1
sg24
Nsg345
g346
sbag2402
asg345
(lp2415
I182
aF182.33333333333331
aF182.66666666666666
asbag0
(g394
g2
Ntp2416
Rp2417
(dp2418
g6
g53
sg8
(lp2419
sg11
g49
sg13
Nsg14
g52
sg19
I0
sg18
F1.0
sg22
Nsg20
Nsg23
I1
sg24
Nsg345
g346
sbasg345
(lp2420
I182
aF182.99999999999994
asbasg345
(lp2421
F180.0
aI182
asbasg345
(lp2422
F176.0
aF180.0
asbag0
(g1
g2
Ntp2423
Rp2424
(dp2425
g6
(lp2426
I2
aI2
asg8
(F0.0
(F182.66666666666666
F184.0
F194.0
tp2427
tp2428
sg11
(lp2429
F46063272.983333334
aF47034701.71666667
asg13
F1.0
sg14
(lp2430
g2316
ag0
(g44
g2
Ntp2431
Rp2432
(dp2433
g48
F188.0
sg11
g49
sg8
(lp2434
sg51
I80
sg13
Nsg14
g52
sg24
Nsg22
Nsg6
g53
sg18
F1.0
sg19
I0
sg20
Nsg54
F194.0
sg23
I0
sg55
g56
sg345
g346
sg347
F186.0
sbasg16
F0.0011129397300330812
sg17
I1
sg18
F0.0011129397300330812
sg19
I2
sg20
(F0.0
F46063272.983333334
tp2435
sg22
F8.0
sg23
I2
sg24
(lp2436
g0
(g1
g2
Ntp2437
Rp2438
(dp2439
g6
(lp2440
I2
asg8
(F0.0
(F182.66666666666666
F184.0
F188.0
tp2441
tp2442
sg11
(lp2443
F46063272.983333334
aF46651028.18333334
asg13
F1.0
sg14
(lp2444
g2316
ag0
(g44
g2
Ntp2445
Rp2446
(dp2447
g48
F186.0
sg11
g49
sg8
(lp2448
sg51
I79
sg13
Nsg14
g52
sg24
Nsg22
Nsg6
g53
sg18
F1.0
sg19
I0
sg20
Nsg54
F188.0
sg23
I0
sg55
g56
sg345
g346
sg347
F184.0
sbasg16
F0.06182065217391304
sg17
I1
sg18
F0.06182065217391304
sg19
I1
sg20
(F0.0
F46063272.983333334
tp2449
sg22
F4.0
sg23
I2
sg24
(lp2450
g2316
ag2446
asg345
(lp2451
F184.0
aF186.0
asbag2432
asg345
(lp2452
F184.0
aF188.0
asbasg345
(lp2453
F176.0
aF184.0
asbasg345
(lp2454
F160.0
aF176.0
asbasg345
(lp2455
F128.0
aF160.0
asbag0
(g1
g2
Ntp2456
Rp2457
(dp2458
g6
(lp2459
I3
aI2
aI2
aI2
aI2
aI2
aI2
asg8
(F0.0
(F188.0
F192.0
F260.0
tp2460
tp2461
sg11
(lp2462
F48046130.45666666
aF55859192.983333334
asg13
F1.0
sg14
(lp2463
Nag0
(g44
g2
Ntp2464
Rp2465
(dp2466
g48
F224.0
sg11
g49
sg8
(lp2467
sg51
I95
sg13
Nsg14
g52
sg24
Nsg22
Nsg6
g53
sg18
F1.0
sg19
I0
sg20
Nsg54
F225.0
sg23
I0
sg55
g56
sg345
g346
sg347
F222.0
sbasg16
F2.280996572150366e-39
sg17
I1
sg18
F2.280996572150366e-39
sg19
I7
sg20
(F0.0
F48046130.45666666
tp2468
sg22
F64.0
sg23
I2
sg24
(lp2469
g0
(g1
g2
Ntp2470
Rp2471
(dp2472
g6
(lp2473
I3
aI2
aI2
aI2
aI2
aI2
asg8
(F0.0
(F188.0
F192.0
F224.0
tp2474
tp2475
sg11
(lp2476
F48046130.45666666
aF51985314.78666668
asg13
F1.0
sg14
(lp2477
NaNasg16
F3.682142170704455e-23
sg17
I1
sg18
F3.682142170704455e-23
sg19
I6
sg20
(F0.0
F48046130.45666666
tp2478
sg22
F32.0
sg23
I2
sg24
(lp2479
g0
(g1
g2
Ntp2480
Rp2481
(dp2482
g6
(lp2483
I3
aI2
aI2
aI2
aI2
asg8
(F0.0
(F188.0
F192.0
F210.0
tp2484
tp2485
sg11
(lp2486
F48046130.45666666
aF49979192.003333315
asg13
F1.0
sg14
(lp2487
NaNasg16
F4.1975885313125556e-10
sg17
I1
sg18
F4.1975885313125556e-10
sg19
I5
sg20
(F0.0
F48046130.45666666
tp2488
sg22
F16.0
sg23
I2
sg24
(lp2489
g0
(g1
g2
Ntp2490
Rp2491
(dp2492
g6
(lp2493
I3
aI2
aI2
aI2
asg8
(F0.0
(F188.0
F192.0
F202.0
tp2494
tp2495
sg11
(lp2496
F48046130.45666666
aF48962048.976666674
asg13
F1.0
sg14
(lp2497
NaNasg16
F3.263922518015254e-05
sg17
I1
sg18
F3.263922518015254e-05
sg19
I4
sg20
(F0.0
F48046130.45666666
tp2498
sg22
F8.0
sg23
I2
sg24
(lp2499
g0
(g1
g2
Ntp2500
Rp2501
(dp2502
g6
(lp2503
I3
aI2
aI2
asg8
(F0.5
(F188.0
F194.0
F202.0
tp2504
tp2505
sg11
(lp2506
F48046130.45666666
aF48504089.71666667
asg13
F1.0
sg14
(lp2507
Nag0
(g44
g2
Ntp2508
Rp2509
(dp2510
g48
F194.0
sg11
g49
sg8
(lp2511
sg51
I81
sg13
Nsg14
g52
sg24
Nsg22
Nsg6
g53
sg18
F1.0
sg19
I0
sg20
Nsg54
F195.66666666666666
sg23
I0
sg55
g56
sg345
g346
sg347
F188.0
sbasg16
F0.0005823629026082975
sg17
I1
sg18
F0.0005823629026082975
sg19
I3
sg20
(F0.5
F48504089.71666667
tp2512
sg22
F4.0
sg23
I2
sg24
(lp2513
g0
(g394
g2
Ntp2514
Rp2515
(dp2516
g6
g53
sg8
(lp2517
sg11
g49
sg13
Nsg14
g52
sg19
I0
sg18
F1.0
sg22
Nsg20
Nsg23
I1
sg24
Nsg345
g346
sbag0
(g1
g2
Ntp2518
Rp2519
(dp2520
g6
(lp2521
I3
aI2
asg8
(F0.0
(F188.0
F194.0
F202.0
tp2522
tp2523
sg11
(lp2524
F48504089.71666667
aF48733069.34666667
asg13
F1.0
sg14
(lp2525
g2509
aNasg16
F0.008445696479206049
sg17
I1
sg18
F0.008445696479206049
sg19
I2
sg20
(F0.0
F48504089.71666667
tp2526
sg22
F2.0
sg23
I2
sg24
(lp2527
g2509
ag0
(g1
g2
Ntp2528
Rp2529
(dp2530
g6
(lp2531
I3
asg8
(F0.0
(F194.0
I195
F202.0
tp2532
tp2533
sg11
(lp2534
NaNaF48885722.43333334
asg13
F1.0
sg14
(lp2535
NaNag0
(g44
g2
Ntp2536
Rp2537
(dp2538
g48
F195.66666666666666
sg11
g49
sg8
(lp2539
sg51
I82
sg13
Nsg14
g52
sg24
Nsg22
Nsg6
g53
sg18
F1.0
sg19
I0
sg20
Nsg54
F202.0
sg23
I0
sg55
g56
sg345
g346
sg347
F194.0
sbasg16
F0.1358695652173913
sg17
I1
sg18
F0.1358695652173913
sg19
I1
sg20
(F0.6666666666666666
F48885722.43333334
tp2540
sg22
F0.9999999999999432
sg23
I2
sg24
(lp2541
g0
(g394
g2
Ntp2542
Rp2543
(dp2544
g6
g53
sg8
(lp2545
sg11
g49
sg13
Nsg14
g52
sg19
I0
sg18
F1.0
sg22
Nsg20
Nsg23
I1
sg24
Nsg345
g346
sbag0
(g394
g2
Ntp2546
Rp2547
(dp2548
g6
g53
sg8
(lp2549
sg11
g49
sg13
Nsg14
g52
sg19
I0
sg18
F1.0
sg22
Nsg20
Nsg23
I1
sg24
Nsg345
g346
sbag2537
asg345
(lp2550
I195
aF195.33333333333331
aF195.66666666666666
asbasg345
(lp2551
F194.0
aI195
asbasg345
(lp2552
F192.0
aF194.0
asbag0
(g394
g2
Ntp2553
Rp2554
(dp2555
g6
g53
sg8
(lp2556
sg11
g49
sg13
Nsg14
g52
sg19
I0
sg18
F1.0
sg22
Nsg20
Nsg23
I1
sg24
Nsg345
g346
sbasg345
(lp2557
F192.0
aF196.0
asbag0
(g1
g2
Ntp2558
Rp2559
(dp2560
g6
(lp2561
I3
aI2
aI2
aI2
asg8
(F0.0
(F195.66666666666666
F200.0
F210.0
tp2562
tp2563
sg11
(lp2564
F49979192.003333315
aF50939192.16333334
asg13
F1.0
sg14
(lp2565
NaNasg16
F3.263922518015254e-05
sg17
I1
sg18
F3.263922518015254e-05
sg19
I4
sg20
(F0.0
F49979192.003333315
tp2566
sg22
F8.0
sg23
I2
sg24
(lp2567
g0
(g1
g2
Ntp2568
Rp2569
(dp2570
g6
(lp2571
I3
aI2
aI2
asg8
(F0.5
(F195.66666666666666
F202.0
F210.0
tp2572
tp2573
sg11
(lp2574
F49979192.003333315
aF50459192.08333333
asg13
F1.0
sg14
(lp2575
Nag0
(g44
g2
Ntp2576
Rp2577
(dp2578
g48
F202.0
sg11
g49
sg8
(lp2579
sg51
I83
sg13
Nsg14
g52
sg24
Nsg22
Nsg6
g53
sg18
F1.0
sg19
I0
sg20
Nsg54
F203.66666666666666
sg23
I0
sg55
g56
sg345
g346
sg347
F195.66666666666666
sbasg16
F0.0005823629026082975
sg17
I1
sg18
F0.0005823629026082975
sg19
I3
sg20
(F0.5
F50459192.08333333
tp2580
sg22
F4.0
sg23
I2
sg24
(lp2581
g0
(g394
g2
Ntp2582
Rp2583
(dp2584
g6
g53
sg8
(lp2585
sg11
g49
sg13
Nsg14
g52
sg19
I0
sg18
F1.0
sg22
Nsg20
Nsg23
I1
sg24
Nsg345
g346
sbag0
(g1
g2
Ntp2586
Rp2587
(dp2588
g6
(lp2589
I3
aI2
asg8
(F0.0
(F195.66666666666666
F202.0
F210.0
tp2590
tp2591
sg11
(lp2592
F50459192.08333333
aF50699192.123333335
asg13
F1.0
sg14
(lp2593
g2577
aNasg16
F0.008445696479206049
sg17
I1
sg18
F0.008445696479206049
sg19
I2
sg20
(F0.0
F50459192.08333333
tp2594
sg22
F2.0
sg23
I2
sg24
(lp2595
g2577
ag0
(g1
g2
Ntp2596
Rp2597
(dp2598
g6
(lp2599
I3
asg8
(F0.0
(F202.0
I203
F210.0
tp2600
tp2601
sg11
(lp2602
NaNaF50859192.150000006
asg13
F1.0
sg14
(lp2603
NaNag0
(g44
g2
Ntp2604
Rp2605
(dp2606
g48
F203.66666666666666
sg11
g49
sg8
(lp2607
sg51
I84
sg13
Nsg14
g52
sg24
Nsg22
Nsg6
g53
sg18
F1.0
sg19
I0
sg20
Nsg54
F210.0
sg23
I0
sg55
g56
sg345
g346
sg347
F202.0
sbasg16
F0.1358695652173913
sg17
I1
sg18
F0.1358695652173913
sg19
I1
sg20
(F0.6666666666666666
F50859192.150000006
tp2608
sg22
F0.9999999999999432
sg23
I2
sg24
(lp2609
g0
(g394
g2
Ntp2610
Rp2611
(dp2612
g6
g53
sg8
(lp2613
sg11
g49
sg13
Nsg14
g52
sg19
I0
sg18
F1.0
sg22
Nsg20
Nsg23
I1
sg24
Nsg345
g346
sbag0
(g394
g2
Ntp2614
Rp2615
(dp2616
g6
g53
sg8
(lp2617
sg11
g49
sg13
Nsg14
g52
sg19
I0
sg18
F1.0
sg22
Nsg20
Nsg23
I1
sg24
Nsg345
g346
sbag2605
asg345
(lp2618
I203
aF203.33333333333331
aF203.66666666666666
asbasg345
(lp2619
F202.0
aI203
asbasg345
(lp2620
F200.0
aF202.0
asbag0
(g394
g2
Ntp2621
Rp2622
(dp2623
g6
g53
sg8
(lp2624
sg11
g49
sg13
Nsg14
g52
sg19
I0
sg18
F1.0
sg22
Nsg20
Nsg23
I1
sg24
Nsg345
g346
sbasg345
(lp2625
F200.0
aF204.0
asbasg345
(lp2626
F192.0
aF200.0
asbag0
(g1
g2
Ntp2627
Rp2628
(dp2629
g6
(lp2630
I3
aI2
aI2
aI2
aI2
asg8
(F0.0
(F203.66666666666666
F208.0
F224.0
tp2631
tp2632
sg11
(lp2633
F51985314.78666668
aF53930621.233333334
asg13
F1.0
sg14
(lp2634
NaNasg16
F2.2262836909091769e-13
sg17
I1
sg18
F2.2262836909091769e-13
sg19
I5
sg20
(F0.0
F51985314.78666668
tp2635
sg22
F16.000000000000114
sg23
I2
sg24
(lp2636
g0
(g1
g2
Ntp2637
Rp2638
(dp2639
g6
(lp2640
I3
aI2
aI2
aI2
asg8
(F0.0
(F203.66666666666666
F208.0
F217.66666666666666
tp2641
tp2642
sg11
(lp2643
F51985314.78666668
aF52871845.54666667
asg13
F1.0
sg14
(lp2644
NaNasg16
F3.263922518015254e-05
sg17
I1
sg18
F3.263922518015254e-05
sg19
I4
sg20
(F0.0
F51985314.78666668
tp2645
sg22
F8.0
sg23
I2
sg24
(lp2646
g0
(g1
g2
Ntp2647
Rp2648
(dp2649
g6
(lp2650
I3
aI2
aI2
asg8
(F0.5
(F203.66666666666666
F210.0
F217.66666666666666
tp2651
tp2652
sg11
(lp2653
F51985314.78666668
aF52428580.16666667
asg13
F1.0
sg14
(lp2654
Nag0
(g44
g2
Ntp2655
Rp2656
(dp2657
g48
F210.0
sg11
g49
sg8
(lp2658
sg51
I85
sg13
Nsg14
g52
sg24
Nsg22
Nsg6
g53
sg18
F1.0
sg19
I0
sg20
Nsg54
F211.66666666666666
sg23
I0
sg55
g56
sg345
g346
sg347
F203.66666666666666
sbasg16
F0.0005823629026082975
sg17
I1
sg18
F0.0005823629026082975
sg19
I3
sg20
(F0.5
F52428580.16666667
tp2659
sg22
F4.0
sg23
I2
sg24
(lp2660
g0
(g394
g2
Ntp2661
Rp2662
(dp2663
g6
g53
sg8
(lp2664
sg11
g49
sg13
Nsg14
g52
sg19
I0
sg18
F1.0
sg22
Nsg20
Nsg23
I1
sg24
Nsg345
g346
sbag0
(g1
g2
Ntp2665
Rp2666
(dp2667
g6
(lp2668
I3
aI2
asg8
(F0.0
(F203.66666666666666
F210.0
F217.66666666666666
tp2669
tp2670
sg11
(lp2671
F52428580.16666667
aF52650212.85666667
asg13
F1.0
sg14
(lp2672
g2656
aNasg16
F0.008445696479206049
sg17
I1
sg18
F0.008445696479206049
sg19
I2
sg20
(F0.0
F52428580.16666667
tp2673
sg22
F2.0
sg23
I2
sg24
(lp2674
g2656
ag0
(g1
g2
Ntp2675
Rp2676
(dp2677
g6
(lp2678
I3
asg8
(F0.0
(F210.0
I211
F217.66666666666666
tp2679
tp2680
sg11
(lp2681
NaNaF52797967.983333334
asg13
F1.0
sg14
(lp2682
NaNag0
(g44
g2
Ntp2683
Rp2684
(dp2685
g48
F211.66666666666666
sg11
g49
sg8
(lp2686
sg51
I86
sg13
Nsg14
g52
sg24
Nsg22
Nsg6
g53
sg18
F1.0
sg19
I0
sg20
Nsg54
F217.66666666666666
sg23
I0
sg55
g56
sg345
g346
sg347
F210.0
sbasg16
F0.1358695652173913
sg17
I1
sg18
F0.1358695652173913
sg19
I1
sg20
(F0.6666666666666666
F52797967.983333334
tp2687
sg22
F0.9999999999999432
sg23
I2
sg24
(lp2688
g0
(g394
g2
Ntp2689
Rp2690
(dp2691
g6
g53
sg8
(lp2692
sg11
g49
sg13
Nsg14
g52
sg19
I0
sg18
F1.0
sg22
Nsg20
Nsg23
I1
sg24
Nsg345
g346
sbag0
(g394
g2
Ntp2693
Rp2694
(dp2695
g6
g53
sg8
(lp2696
sg11
g49
sg13
Nsg14
g52
sg19
I0
sg18
F1.0
sg22
Nsg20
Nsg23
I1
sg24
Nsg345
g346
sbag2684
asg345
(lp2697
I211
aF211.33333333333331
aF211.66666666666666
asbasg345
(lp2698
F210.0
aI211
asbasg345
(lp2699
F208.0
aF210.0
asbag0
(g394
g2
Ntp2700
Rp2701
(dp2702
g6
g53
sg8
(lp2703
sg11
g49
sg13
Nsg14
g52
sg19
I0
sg18
F1.0
sg22
Nsg20
Nsg23
I1
sg24
Nsg345
g346
sbasg345
(lp2704
F208.0
aF212.0
asbag0
(g1
g2
Ntp2705
Rp2706
(dp2707
g6
(lp2708
I3
aI2
aI2
aI2
asg8
(F0.0
(F211.66666666666666
F216.00000000000006
F224.0
tp2709
tp2710
sg11
(lp2711
F53930621.233333334
aF54869396.900000006
asg13
F1.0
sg14
(lp2712
Nag0
(g44
g2
Ntp2713
Rp2714
(dp2715
g48
F220.0
sg11
g49
sg8
(lp2716
sg51
I92
sg13
Nsg14
g52
sg24
Nsg22
Nsg6
g53
sg18
F1.0
sg19
I0
sg20
Nsg54
F221.0
sg23
I0
sg55
g56
sg345
g346
sg347
F219.66666666666666
sbasg16
F1.731093320854014e-08
sg17
I1
sg18
F1.731093320854014e-08
sg19
I4
sg20
(F0.0
F53930621.233333334
tp2717
sg22
F7.999999999999886
sg23
I2
sg24
(lp2718
g0
(g1
g2
Ntp2719
Rp2720
(dp2721
g6
(lp2722
I3
aI2
aI2
asg8
(F0.0
(F211.66666666666666
F216.00000000000006
F220.0
tp2723
tp2724
sg11
(lp2725
F53930621.233333334
aF54375519.266666666
asg13
F1.0
sg14
(lp2726
Nag0
(g44
g2
Ntp2727
Rp2728
(dp2729
g48
F218.0
sg11
g49
sg8
(lp2730
sg51
I88
sg13
Nsg14
g52
sg24
Nsg22
Nsg6
g53
sg18
F1.0
sg19
I0
sg20
Nsg54
F218.66666666666666
sg23
I0
sg55
g56
sg345
g346
sg347
F217.66666666666666
sbasg16
F3.947559193030725e-05
sg17
I1
sg18
F3.947559193030725e-05
sg19
I3
sg20
(F0.5
F54375519.266666666
tp2731
sg22
F3.9999999999998863
sg23
I2
sg24
(lp2732
g0
(g1
g2
Ntp2733
Rp2734
(dp2735
g6
(lp2736
I3
aI2
asg8
(F0.5
(F211.66666666666666
I217
F218.0
tp2737
tp2738
sg11
(lp2739
NaNasg13
F1.0
sg14
(lp2740
NaNasg16
F0.009368723416824196
sg17
I1
sg18
F0.009368723416824196
sg19
I2
sg20
(F0.8333333333333333
F54255111.08333333
tp2741
sg22
F1.9999999999998863
sg23
I2
sg24
(lp2742
g0
(g394
g2
Ntp2743
Rp2744
(dp2745
g6
g53
sg8
(lp2746
sg11
g49
sg13
Nsg14
g52
sg19
I0
sg18
F1.0
sg22
Nsg20
Nsg23
I1
sg24
Nsg345
g346
sbag0
(g1
g2
Ntp2747
Rp2748
(dp2749
g6
(lp2750
I3
asg8
(F0.0
(F211.66666666666666
I217
F218.0
tp2751
tp2752
sg11
(lp2753
NaNaF54255111.08333333
asg13
F1.0
sg14
(lp2754
NaNag0
(g44
g2
Ntp2755
Rp2756
(dp2757
g48
F217.66666666666666
sg11
g49
sg8
(lp2758
sg51
I87
sg13
Nsg14
g52
sg24
Nsg22
Nsg6
g53
sg18
F1.0
sg19
I0
sg20
Nsg54
F218.0
sg23
I0
sg55
g56
sg345
g346
sg347
F211.66666666666666
sbasg16
F0.1358695652173913
sg17
I1
sg18
F0.1358695652173913
sg19
I1
sg20
(F0.6666666666666666
F54255111.08333333
tp2759
sg22
F0.9999999999999432
sg23
I2
sg24
(lp2760
g0
(g394
g2
Ntp2761
Rp2762
(dp2763
g6
g53
sg8
(lp2764
sg11
g49
sg13
Nsg14
g52
sg19
I0
sg18
F1.0
sg22
Nsg20
Nsg23
I1
sg24
Nsg345
g346
sbag0
(g394
g2
Ntp2765
Rp2766
(dp2767
g6
g53
sg8
(lp2768
sg11
g49
sg13
Nsg14
g52
sg19
I0
sg18
F1.0
sg22
Nsg20
Nsg23
I1
sg24
Nsg345
g346
sbag2756
asg345
(lp2769
I217
aF217.33333333333331
aF217.66666666666666
asbasg345
(lp2770
F216.00000000000006
aI217
asbag0
(g1
g2
Ntp2771
Rp2772
(dp2773
g6
(lp2774
I3
aI2
asg8
(F0.0
(F217.66666666666666
F218.0
F220.0
tp2775
tp2776
sg11
(lp2777
F54375519.266666666
aF54597968.28333333
asg13
F1.0
sg14
(lp2778
g2728
ag0
(g44
g2
Ntp2779
Rp2780
(dp2781
g48
F219.0
sg11
g49
sg8
(lp2782
sg51
I90
sg13
Nsg14
g52
sg24
Nsg22
Nsg6
g53
sg18
F1.0
sg19
I0
sg20
Nsg54
F219.66666666666666
sg23
I0
sg55
g56
sg345
g346
sg347
F218.66666666666666
sbasg16
F0.010693701308824103
sg17
I1
sg18
F0.010693701308824103
sg19
I2
sg20
(F0.0
F54375519.266666666
tp2783
sg22
F2.0
sg23
I2
sg24
(lp2784
g0
(g1
g2
Ntp2785
Rp2786
(dp2787
g6
(lp2788
I3
asg8
(F0.0
(F217.66666666666666
F218.0
F219.0
tp2789
tp2790
sg11
(lp2791
F54375519.266666666
aF54434702.95
aF54493886.63333334
asg13
F1.0
sg14
(lp2792
g2728
aNag0
(g44
g2
Ntp2793
Rp2794
(dp2795
g48
F218.66666666666666
sg11
g49
sg8
(lp2796
sg51
I89
sg13
Nsg14
g52
sg24
Nsg22
Nsg6
g53
sg18
F1.0
sg19
I0
sg20
Nsg54
F219.0
sg23
I0
sg55
g56
sg345
g346
sg347
F218.0
sbasg16
F0.16474184782608695
sg17
I1
sg18
F0.16474184782608695
sg19
I1
sg20
(F0.0
F54375519.266666666
tp2797
sg22
F0.9999999999999432
sg23
I2
sg24
(lp2798
g2728
ag0
(g394
g2
Ntp2799
Rp2800
(dp2801
g6
g53
sg8
(lp2802
sg11
g49
sg13
Nsg14
g52
sg19
I0
sg18
F1.0
sg22
Nsg20
Nsg23
I1
sg24
Nsg345
g346
sbag2794
asg345
(lp2803
F218.0
aF218.33333333333331
aF218.66666666666666
asbag0
(g1
g2
Ntp2804
Rp2805
(dp2806
g6
(lp2807
I3
asg8
(F0.0
(F218.66666666666666
F219.0
F220.0
tp2808
tp2809
sg11
(lp2810
F54597968.28333333
aF54662254.00833333
aF54726539.733333334
asg13
F1.0
sg14
(lp2811
g2780
aNag0
(g44
g2
Ntp2812
Rp2813
(dp2814
g48
F219.66666666666666
sg11
g49
sg8
(lp2815
sg51
I91
sg13
Nsg14
g52
sg24
Nsg22
Nsg6
g53
sg18
F1.0
sg19
I0
sg20
Nsg54
F220.0
sg23
I0
sg55
g56
sg345
g346
sg347
F219.0
sbasg16
F0.16474184782608695
sg17
I1
sg18
F0.16474184782608695
sg19
I1
sg20
(F0.0
F54597968.28333333
tp2816
sg22
F0.9999999999999432
sg23
I2
sg24
(lp2817
g2780
ag0
(g394
g2
Ntp2818
Rp2819
(dp2820
g6
g53
sg8
(lp2821
sg11
g49
sg13
Nsg14
g52
sg19
I0
sg18
F1.0
sg22
Nsg20
Nsg23
I1
sg24
Nsg345
g346
sbag2813
asg345
(lp2822
F219.0
aF219.33333333333331
aF219.66666666666666
asbasg345
(lp2823
F218.0
aF219.0
asbasg345
(lp2824
F216.00000000000006
aF218.0
asbag0
(g1
g2
Ntp2825
Rp2826
(dp2827
g6
(lp2828
I2
aI2
asg8
(F0.0
(F219.66666666666666
F220.0
F224.0
tp2829
tp2830
sg11
(lp2831
F54869396.900000006
aF55369396.983333334
asg13
F1.0
sg14
(lp2832
g2714
ag0
(g44
g2
Ntp2833
Rp2834
(dp2835
g48
F222.0
sg11
g49
sg8
(lp2836
sg51
I94
sg13
Nsg14
g52
sg24
Nsg22
Nsg6
g53
sg18
F1.0
sg19
I0
sg20
Nsg54
F224.0
sg23
I0
sg55
g56
sg345
g346
sg347
F221.0
sbasg16
F0.0011129397300330812
sg17
I1
sg18
F0.0011129397300330812
sg19
I2
sg20
(F0.0
F54869396.900000006
tp2837
sg22
F4.0
sg23
I2
sg24
(lp2838
g0
(g1
g2
Ntp2839
Rp2840
(dp2841
g6
(lp2842
I2
asg8
(F0.0
(F219.66666666666666
F220.0
F222.0
tp2843
tp2844
sg11
(lp2845
F54869396.900000006
aF55118376.53333333
asg13
F1.0
sg14
(lp2846
g2714
ag0
(g44
g2
Ntp2847
Rp2848
(dp2849
g48
F221.0
sg11
g49
sg8
(lp2850
sg51
I93
sg13
Nsg14
g52
sg24
Nsg22
Nsg6
g53
sg18
F1.0
sg19
I0
sg20
Nsg54
F222.0
sg23
I0
sg55
g56
sg345
g346
sg347
F220.0
sbasg16
F0.06182065217391304
sg17
I1
sg18
F0.06182065217391304
sg19
I1
sg20
(F0.0
F54869396.900000006
tp2851
sg22
F2.0
sg23
I2
sg24
(lp2852
g2714
ag2848
asg345
(lp2853
F220.0
aF221.0
asbag2834
asg345
(lp2854
F220.0
aF222.0
asbasg345
(lp2855
F216.00000000000006
aF220.0
asbasg345
(lp2856
F208.0
aF216.00000000000006
asbasg345
(lp2857
F192.0
aF208.0
asbag0
(g1
g2
Ntp2858
Rp2859
(dp2860
g6
(lp2861
I3
aI2
aI2
aI2
aI2
aI2
asg8
(F0.0
(F222.0
F224.0
F260.0
tp2862
tp2863
sg11
(lp2864
F55859192.983333334
aF59757152.81666668
asg13
F1.0
sg14
(lp2865
g2465
aNasg16
F1.5721858965868422e-16
sg17
I1
sg18
F1.5721858965868422e-16
sg19
I6
sg20
(F0.0
F55859192.983333334
tp2866
sg22
F32.0
sg23
I2
sg24
(lp2867
g0
(g1
g2
Ntp2868
Rp2869
(dp2870
g6
(lp2871
I3
aI2
aI2
aI2
aI2
asg8
(F0.0
(F222.0
F224.0
F260.0
tp2872
tp2873
sg11
(lp2874
F55859192.983333334
aF57808172.900000006
asg13
F1.0
sg14
(lp2875
g2465
ag0
(g44
g2
Ntp2876
Rp2877
(dp2878
g48
F232.0
sg11
g49
sg8
(lp2879
sg51
I103
sg13
Nsg14
g52
sg24
Nsg22
Nsg6
g53
sg18
F1.0
sg19
I0
sg20
Nsg54
F233.0
sg23
I0
sg55
g56
sg345
g346
sg347
F230.0
sbasg16
F2.8051607754858565e-15
sg17
I1
sg18
F2.8051607754858565e-15
sg19
I5
sg20
(F0.0
F55859192.983333334
tp2880
sg22
F16.0
sg23
I2
sg24
(lp2881
g0
(g1
g2
Ntp2882
Rp2883
(dp2884
g6
(lp2885
I3
aI2
aI2
aI2
asg8
(F0.0
(F222.0
F224.0
F232.0
tp2886
tp2887
sg11
(lp2888
F55859192.983333334
aF56855111.516666666
asg13
F1.0
sg14
(lp2889
g2465
ag0
(g44
g2
Ntp2890
Rp2891
(dp2892
g48
F228.0
sg11
g49
sg8
(lp2893
sg51
I100
sg13
Nsg14
g52
sg24
Nsg22
Nsg6
g53
sg18
F1.0
sg19
I0
sg20
Nsg54
F229.0
sg23
I0
sg55
g56
sg345
g346
sg347
F227.0
sbasg16
F4.328022202181228e-09
sg17
I1
sg18
F4.328022202181228e-09
sg19
I4
sg20
(F0.0
F55859192.983333334
tp2894
sg22
F8.0
sg23
I2
sg24
(lp2895
g0
(g1
g2
Ntp2896
Rp2897
(dp2898
g6
(lp2899
I3
aI2
aI2
asg8
(F0.0
(F222.0
F224.0
F228.0
tp2900
tp2901
sg11
(lp2902
F55859192.983333334
aF56197968.55
asg13
F1.0
sg14
(lp2903
g2465
aNasg16
F9.869556785900397e-06
sg17
I1
sg18
F9.869556785900397e-06
sg19
I3
sg20
(F0.0
F55859192.983333334
tp2904
sg22
F4.0
sg23
I2
sg24
(lp2905
g0
(g1
g2
Ntp2906
Rp2907
(dp2908
g6
(lp2909
I3
aI2
asg8
(F0.0
(F222.0
F224.0
F226.66666666666666
tp2910
tp2911
sg11
(lp2912
F55859192.983333334
aF56102050.16666667
asg13
F1.0
sg14
(lp2913
g2465
ag0
(g44
g2
Ntp2914
Rp2915
(dp2916
g48
F225.0
sg11
g49
sg8
(lp2917
sg51
I96
sg13
Nsg14
g52
sg24
Nsg22
Nsg6
g53
sg18
F1.0
sg19
I0
sg20
Nsg54
F225.66666666666666
sg23
I0
sg55
g56
sg345
g346
sg347
F224.0
sbasg16
F0.010240406981037333
sg17
I1
sg18
F0.010240406981037333
sg19
I2
sg20
(F0.0
F55859192.983333334
tp2918
sg22
F2.0
sg23
I2
sg24
(lp2919
g2465
ag0
(g1
g2
Ntp2920
Rp2921
(dp2922
g6
(lp2923
I3
asg8
(F0.0
(F224.0
F225.0
F226.66666666666666
tp2924
tp2925
sg11
(lp2926
F56102050.16666667
aF56165315.483333334
aF56228580.8
asg13
F1.0
sg14
(lp2927
g2915
aNag0
(g44
g2
Ntp2928
Rp2929
(dp2930
g48
F225.66666666666666
sg11
g49
sg8
(lp2931
sg51
I97
sg13
Nsg14
g52
sg24
Nsg22
Nsg6
g53
sg18
F1.0
sg19
I0
sg20
Nsg54
F226.66666666666666
sg23
I0
sg55
g56
sg345
g346
sg347
F225.0
sbasg16
F0.16474184782608695
sg17
I1
sg18
F0.16474184782608695
sg19
I1
sg20
(F0.0
F56102050.16666667
tp2932
sg22
F0.9999999999999432
sg23
I2
sg24
(lp2933
g2915
ag0
(g394
g2
Ntp2934
Rp2935
(dp2936
g6
g53
sg8
(lp2937
sg11
g49
sg13
Nsg14
g52
sg19
I0
sg18
F1.0
sg22
Nsg20
Nsg23
I1
sg24
Nsg345
g346
sbag2929
asg345
(lp2938
F225.0
aF225.33333333333331
aF225.66666666666666
asbasg345
(lp2939
F224.0
aF225.0
asbag0
(g1
g2
Ntp2940
Rp2941
(dp2942
g6
(lp2943
I3
aI2
asg8
(F0.0
(F225.66666666666666
I226
F228.0
tp2944
tp2945
sg11
(lp2946
F56197968.55
aF56589805.349999994
asg13
F1.0
sg14
(lp2947
Nag0
(g44
g2
Ntp2948
Rp2949
(dp2950
g48
F227.0
sg11
g49
sg8
(lp2951
sg51
I99
sg13
Nsg14
g52
sg24
Nsg22
Nsg6
g53
sg18
F1.0
sg19
I0
sg20
Nsg54
F228.0
sg23
I0
sg55
g56
sg345
g346
sg347
F226.66666666666666
sbasg16
F0.0024460213846880905
sg17
I1
sg18
F0.0024460213846880905
sg19
I2
sg20
(F0.5
F56589805.349999994
tp2952
sg22
F2.0
sg23
I2
sg24
(lp2953
g0
(g1
g2
Ntp2954
Rp2955
(dp2956
g6
(lp2957
I3
asg8
(F0.0
(F225.66666666666666
I226
F227.0
tp2958
tp2959
sg11
(lp2960
NaNaF56459193.08333333
asg13
F1.0
sg14
(lp2961
NaNag0
(g44
g2
Ntp2962
Rp2963
(dp2964
g48
F226.66666666666666
sg11
g49
sg8
(lp2965
sg51
I98
sg13
Nsg14
g52
sg24
Nsg22
Nsg6
g53
sg18
F1.0
sg19
I0
sg20
Nsg54
F227.0
sg23
I0
sg55
g56
sg345
g346
sg347
F225.66666666666666
sbasg16
F0.1358695652173913
sg17
I1
sg18
F0.1358695652173913
sg19
I1
sg20
(F0.6666666666666666
F56459193.08333333
tp2966
sg22
F0.9999999999999432
sg23
I2
sg24
(lp2967
g0
(g394
g2
Ntp2968
Rp2969
(dp2970
g6
g53
sg8
(lp2971
sg11
g49
sg13
Nsg14
g52
sg19
I0
sg18
F1.0
sg22
Nsg20
Nsg23
I1
sg24
Nsg345
g346
sbag0
(g394
g2
Ntp2972
Rp2973
(dp2974
g6
g53
sg8
(lp2975
sg11
g49
sg13
Nsg14
g52
sg19
I0
sg18
F1.0
sg22
Nsg20
Nsg23
I1
sg24
Nsg345
g346
sbag2963
asg345
(lp2976
I226
aF226.33333333333331
aF226.66666666666666
asbag2949
asg345
(lp2977
I226
aF227.0
asbasg345
(lp2978
F224.0
aI226
asbag0
(g1
g2
Ntp2979
Rp2980
(dp2981
g6
(lp2982
I2
aI2
asg8
(F0.0
(F227.0
F228.0
F232.0
tp2983
tp2984
sg11
(lp2985
F56855111.516666666
aF57342866.7
asg13
F1.0
sg14
(lp2986
g2891
ag0
(g44
g2
Ntp2987
Rp2988
(dp2989
g48
F230.0
sg11
g49
sg8
(lp2990
sg51
I102
sg13
Nsg14
g52
sg24
Nsg22
Nsg6
g53
sg18
F1.0
sg19
I0
sg20
Nsg54
F232.0
sg23
I0
sg55
g56
sg345
g346
sg347
F229.0
sbasg16
F0.0011129397300330812
sg17
I1
sg18
F0.0011129397300330812
sg19
I2
sg20
(F0.0
F56855111.516666666
tp2991
sg22
F4.0
sg23
I2
sg24
(lp2992
g0
(g1
g2
Ntp2993
Rp2994
(dp2995
g6
(lp2996
I2
asg8
(F0.0
(F227.0
F228.0
F230.0
tp2997
tp2998
sg11
(lp2999
F56855111.516666666
aF57079601.349999994
asg13
F1.0
sg14
(lp3000
g2891
ag0
(g44
g2
Ntp3001
Rp3002
(dp3003
g48
F229.0
sg11
g49
sg8
(lp3004
sg51
I101
sg13
Nsg14
g52
sg24
Nsg22
Nsg6
g53
sg18
F1.0
sg19
I0
sg20
Nsg54
F230.0
sg23
I0
sg55
g56
sg345
g346
sg347
F228.0
sbasg16
F0.06182065217391304
sg17
I1
sg18
F0.06182065217391304
sg19
I1
sg20
(F0.0
F56855111.516666666
tp3005
sg22
F2.0
sg23
I2
sg24
(lp3006
g2891
ag3002
asg345
(lp3007
F228.0
aF229.0
asbag2988
asg345
(lp3008
F228.0
aF230.0
asbasg345
(lp3009
F224.0
aF228.0
asbag0
(g1
g2
Ntp3010
Rp3011
(dp3012
g6
(lp3013
I3
aI2
aI2
aI2
asg8
(F0.0
(F230.0
F232.0
F260.0
tp3014
tp3015
sg11
(lp3016
F57808172.900000006
aF58736064.21111113
asg13
F1.0
sg14
(lp3017
g2877
aNasg16
F1.644932547996474e-06
sg17
I1
sg18
F1.644932547996474e-06
sg19
I4
sg20
(F0.0
F57808172.900000006
tp3018
sg22
F8.0
sg23
I2
sg24
(lp3019
g0
(g1
g2
Ntp3020
Rp3021
(dp3022
g6
(lp3023
I3
aI2
aI2
asg8
(F0.0
(F230.0
F232.0
F260.0
tp3024
tp3025
sg11
(lp3026
F57808172.900000006
aF58272118.55555557
asg13
F1.0
sg14
(lp3027
g2877
aNasg16
F2.934958437152497e-05
sg17
I1
sg18
F2.934958437152497e-05
sg19
I3
sg20
(F0.0
F57808172.900000006
tp3028
sg22
F4.0
sg23
I2
sg24
(lp3029
g0
(g1
g2
Ntp3030
Rp3031
(dp3032
g6
(lp3033
I3
aI2
asg8
(F0.0
(F230.0
F232.0
F234.66666666666666
tp3034
tp3035
sg11
(lp3036
F57808172.900000006
aF58048989.266666666
asg13
F1.0
sg14
(lp3037
g2877
ag0
(g44
g2
Ntp3038
Rp3039
(dp3040
g48
F233.0
sg11
g49
sg8
(lp3041
sg51
I104
sg13
Nsg14
g52
sg24
Nsg22
Nsg6
g53
sg18
F1.0
sg19
I0
sg20
Nsg54
F233.66666666666666
sg23
I0
sg55
g56
sg345
g346
sg347
F232.0
sbasg16
F0.010240406981037333
sg17
I1
sg18
F0.010240406981037333
sg19
I2
sg20
(F0.0
F57808172.900000006
tp3042
sg22
F2.0
sg23
I2
sg24
(lp3043
g2877
ag0
(g1
g2
Ntp3044
Rp3045
(dp3046
g6
(lp3047
I3
asg8
(F0.0
(F232.0
F233.0
F234.66666666666666
tp3048
tp3049
sg11
(lp3050
F58048989.266666666
aF58118377.03333333
aF58187764.8
asg13
F1.0
sg14
(lp3051
g3039
aNag0
(g44
g2
Ntp3052
Rp3053
(dp3054
g48
F233.66666666666666
sg11
g49
sg8
(lp3055
sg51
I105
sg13
Nsg14
g52
sg24
Nsg22
Nsg6
g53
sg18
F1.0
sg19
I0
sg20
Nsg54
F234.66666666666666
sg23
I0
sg55
g56
sg345
g346
sg347
F233.0
sbasg16
F0.16474184782608695
sg17
I1
sg18
F0.16474184782608695
sg19
I1
sg20
(F0.0
F58048989.266666666
tp3056
sg22
F0.9999999999999432
sg23
I2
sg24
(lp3057
g3039
ag0
(g394
g2
Ntp3058
Rp3059
(dp3060
g6
g53
sg8
(lp3061
sg11
g49
sg13
Nsg14
g52
sg19
I0
sg18
F1.0
sg22
Nsg20
Nsg23
I1
sg24
Nsg345
g346
sbag3053
asg345
(lp3062
F233.0
aF233.33333333333331
aF233.66666666666666
asbasg345
(lp3063
F232.0
aF233.0
asbag0
(g1
g2
Ntp3064
Rp3065
(dp3066
g6
(lp3067
I3
aI2
asg8
(F0.0
(F233.66666666666666
I234
F260.0
tp3068
tp3069
sg11
(lp3070
F58272118.55555557
aF58506812.472222224
asg13
F1.0
sg14
(lp3071
NaNasg16
F0.0072738535844908345
sg17
I1
sg18
F0.0072738535844908345
sg19
I2
sg20
(F0.3333333333333333
F58428581.16666667
tp3072
sg22
I2
sg23
I2
sg24
(lp3073
g0
(g1
g2
Ntp3074
Rp3075
(dp3076
g6
(lp3077
I3
asg8
(F0.0
(F233.66666666666666
I234
F235.66666666666666
tp3078
tp3079
sg11
(lp3080
NaNaF58428581.16666667
asg13
F1.0
sg14
(lp3081
NaNag0
(g44
g2
Ntp3082
Rp3083
(dp3084
g48
F234.66666666666666
sg11
g49
sg8
(lp3085
sg51
I106
sg13
Nsg14
g52
sg24
Nsg22
Nsg6
g53
sg18
F1.0
sg19
I0
sg20
Nsg54
F235.66666666666666
sg23
I0
sg55
g56
sg345
g346
sg347
F233.66666666666666
sbasg16
F0.1358695652173913
sg17
I1
sg18
F0.1358695652173913
sg19
I1
sg20
(F0.6666666666666666
F58428581.16666667
tp3086
sg22
F0.9999999999999432
sg23
I2
sg24
(lp3087
g0
(g394
g2
Ntp3088
Rp3089
(dp3090
g6
g53
sg8
(lp3091
sg11
g49
sg13
Nsg14
g52
sg19
I0
sg18
F1.0
sg22
Nsg20
Nsg23
I1
sg24
Nsg345
g346
sbag0
(g394
g2
Ntp3092
Rp3093
(dp3094
g6
g53
sg8
(lp3095
sg11
g49
sg13
Nsg14
g52
sg19
I0
sg18
F1.0
sg22
Nsg20
Nsg23
I1
sg24
Nsg345
g346
sbag3083
asg345
(lp3096
I234
aF234.33333333333331
aF234.66666666666666
asbag0
(g1
g2
Ntp3097
Rp3098
(dp3099
g6
(lp3100
I3
asg8
(F0.0
(F234.66666666666666
I235
F260.0
tp3101
tp3102
sg11
(lp3103
NaNaF58663275.08333333
asg13
F1.0
sg14
(lp3104
NaNag0
(g44
g2
Ntp3105
Rp3106
(dp3107
g48
F235.66666666666666
sg11
g49
sg8
(lp3108
sg51
I107
sg13
Nsg14
g52
sg24
Nsg22
Nsg6
g53
sg18
F1.0
sg19
I0
sg20
Nsg54
F260.0
sg23
I0
sg55
g56
sg345
g346
sg347
F234.66666666666666
sbasg16
F0.1358695652173913
sg17
I1
sg18
F0.1358695652173913
sg19
I1
sg20
(F0.6666666666666666
F58663275.08333333
tp3109
sg22
F0.9999999999999432
sg23
I2
sg24
(lp3110
g0
(g394
g2
Ntp3111
Rp3112
(dp3113
g6
g53
sg8
(lp3114
sg11
g49
sg13
Nsg14
g52
sg19
I0
sg18
F1.0
sg22
Nsg20
Nsg23
I1
sg24
Nsg345
g346
sbag0
(g394
g2
Ntp3115
Rp3116
(dp3117
g6
g53
sg8
(lp3118
sg11
g49
sg13
Nsg14
g52
sg19
I0
sg18
F1.0
sg22
Nsg20
Nsg23
I1
sg24
Nsg345
g346
sbag3106
asg345
(lp3119
I235
aF235.33333333333331
aF235.66666666666666
asbasg345
(lp3120
I234
aI235
asbasg345
(lp3121
F232.0
aI234
asbag0
(g394
g2
Ntp3122
Rp3123
(dp3124
g6
g53
sg8
(lp3125
sg11
g49
sg13
Nsg14
g52
sg19
I0
sg18
F1.0
sg22
Nsg20
Nsg23
I1
sg24
Nsg345
g346
sbasg345
(lp3126
F232.0
aF236.0
asbasg345
(lp3127
F224.0
aF232.0
asbag0
(g394
g2
Ntp3128
Rp3129
(dp3130
g6
g53
sg8
(lp3131
sg11
g49
sg13
Nsg14
g52
sg19
I0
sg18
F1.0
sg22
Nsg20
Nsg23
I1
sg24
Nsg345
g346
sbasg345
(lp3132
F224.0
aF240.0
asbasg345
(lp3133
F192.0
aF224.0
asbasg345
(lp3134
F128.0
aF192.0
asbasg345
(lp3135
F0.0
aF128.0
asb.