ccopy_reg
_reconstructor
p0
(cjazzr.rhythm.symbol
Symbol
p1
c__builtin__
object
p2
Ntp3
Rp4
(dp5
S'divisions'
p6
(lp7
I3
aI2
aI2
aI2
aI2
aI2
aI2
aI2
asS'features'
p8
(F0.0
(I0
I0
F260.0
tp9
tp10
sS'perf_beats'
p11
(lp12
F2415000.0
aF21655000.0
asS'likelihood'
p13
F1.0
sS'onsets'
p14
(lp15
NaNasS'posterior'
p16
F5.800000367134628e-125
sS'n'
p17
I1
sS'prior'
p18
F5.800000367134628e-125
sS'depth'
p19
I8
sS'perf_on'
p20
(F0.0
F2415000.0
tp21
sS'length'
p22
I128
sS'type'
p23
I2
sS'children'
p24
(lp25
g0
(g1
g2
Ntp26
Rp27
(dp28
g6
(lp29
I3
aI2
aI2
aI2
aI2
aI2
aI2
asg8
(F0.0
(I0
I0
F64.66666666666667
tp30
tp31
sg11
(lp32
F2415000.0
aF12028750.0
asg13
F1.0
sg14
(lp33
NaNasg16
F5.2236436400448604e-61
sg17
I1
sg18
F5.2236436400448604e-61
sg19
I7
sg20
(F0.0
F2415000.0
tp34
sg22
I64
sg23
I2
sg24
(lp35
g0
(g1
g2
Ntp36
Rp37
(dp38
g6
(lp39
I3
aI2
aI2
aI2
aI2
aI2
asg8
(F0.0
(I0
I0
F32.666666666666664
tp40
tp41
sg11
(lp42
F2415000.0
aF7250000.0
asg13
F1.0
sg14
(lp43
NaNasg16
F7.478558738559332e-31
sg17
I1
sg18
F7.478558738559332e-31
sg19
I6
sg20
(F0.0
F2415000.0
tp44
sg22
I32
sg23
I2
sg24
(lp45
g0
(g1
g2
Ntp46
Rp47
(dp48
g6
(lp49
I3
aI2
aI2
aI2
aI2
asg8
(F0.0
(I0
I0
F16.666666666666668
tp50
tp51
sg11
(lp52
F2415000.0
aF4803750.0
asg13
F1.0
sg14
(lp53
NaNasg16
F5.143179179713884e-20
sg17
I1
sg18
F5.143179179713884e-20
sg19
I5
sg20
(F0.0
F2415000.0
tp54
sg22
I16
sg23
I2
sg24
(lp55
g0
(g1
g2
Ntp56
Rp57
(dp58
g6
(lp59
I3
aI2
aI2
aI2
asg8
(F0.0
(I0
I0
F8.666666666666668
tp60
tp61
sg11
(lp62
F2415000.0
aF3620000.0
asg13
F1.0
sg14
(lp63
Nag0
(cjazzr.rhythm.symbol
Onset
p64
g2
Ntp65
Rp66
(dp67
S'on'
p68
F4.0
sg11
(lp69
sg8
(lp70
sS'index'
p71
I6
sg13
Nsg14
(lp72
sg24
Nsg22
Nsg6
(lp73
sg18
F1.0
sg19
I0
sg20
NsS'next'
p74
F4.666666666666666
sg23
I0
sS'annotation'
p75
(ijazzr.annotation
Annotation
p76
(dp77
S'scale'
p78
I1000000
sS'name'
p79
S'aint_misbehavin-12-8-0'
p80
sS'notes'
p81
(lp82
(F2627500.0
F2732499.9999999995
I63
I115
tp83
a(F2722500.0
F2927500.0
I65
I97
tp84
a(F2927500.0
F3002500.0
I63
I91
tp85
a(F3025000.0
F3182499.9999999995
I70
I116
tp86
a(F3237500.0
F3537500.0
I70
I114
tp87
a(F3620000.0
F3812500.0
I65
I104
tp88
a(F3835000.0
F4025000.0
I67
I103
tp89
a(F4015000.0
F4210000.0
I65
I106
tp90
a(F4210000.0
F4830000.0
I72
I106
tp91
a(F5017500.0
F5095000.0
I70
I120
tp92
a(F5115000.0
F5267500.0
I72
I100
tp93
a(F5322500.0
F5362500.0
I70
I98
tp94
a(F5425000.0
F5572500.0
I75
I122
tp95
a(F5637500.0
F5842500.0
I75
I123
tp96
a(F5935000.000000001
F5985000.0
I74
I67
tp97
a(F6015000.0
F6167500.0
I77
I114
tp98
a(F6220000.0
F6412500.0
I75
I115
tp99
a(F6410000.0
F6560000.0
I72
I99
tp100
a(F6635000.0
F6755000.0
I67
I94
tp101
a(F6745000.0
F6842500.0
I66
I108
tp102
a(F6837500.0
F7317500.0
I65
I101
tp103
a(F7430000.0
F7537500.0
I63
I119
tp104
a(F7535000.0
F7712500.0
I65
I88
tp105
a(F7725000.0
F7807500.0
I63
I97
tp106
a(F7830000.0
F7972500.0
I70
I108
tp107
a(F8037500.0
F8357500.0
I70
I116
tp108
a(F8425000.0
F8607500.0
I65
I98
tp109
a(F8625000.0
F8820000.0
I67
I99
tp110
a(F8807500.0
F9015000.0
I65
I88
tp111
a(F9005000.0
F9162500.0
I72
I105
tp112
a(F9310000.0
F9467500.0
I70
I115
tp113
a(F9520000.0
F11960000.0
I67
I109
tp114
a(F12215000.0
F12335000.0
I63
I110
tp115
a(F12325000.0
F12550000.0
I65
I93
tp116
a(F12522500.0
F12617499.999999998
I63
I98
tp117
a(F12625000.0
F12785000.0
I70
I107
tp118
a(F12847500.0
F13195000.0
I70
I105
tp119
a(F13225000.0
F13420000.0
I65
I103
tp120
a(F13435000.0
F13567500.0
I67
I102
tp121
a(F13547500.0
F13732500.0
I65
I102
tp122
a(F13735000.0
F14592500.0
I72
I108
tp123
a(F14620000.0
F14732500.0
I70
I112
tp124
a(F14730000.0
F14915000.0
I72
I86
tp125
a(F14930000.0
F14982500.000000002
I70
I77
tp126
a(F15015000.0
F15190000.0
I75
I116
tp127
a(F15240000.0
F15402500.0
I75
I118
tp128
a(F15517500.0
F15579999.999999998
I74
I89
tp129
a(F15612500.0
F15802500.0
I77
I110
tp130
a(F15822500.0
F16022500.0
I75
I110
tp131
a(F16015000.0
F16162500.0
I72
I99
tp132
a(F16237500.0
F16342500.0
I67
I92
tp133
a(F16335000.0
F16437500.0
I66
I103
tp134
a(F16432500.0
F16895000.0
I65
I102
tp135
a(F17022500.0
F17097500.0
I63
I119
tp136
a(F17120000.0
F17275000.0
I65
I67
tp137
a(F17307500.0
F17405000.0
I63
I88
tp138
a(F17420000.0
F17562500.0
I70
I114
tp139
a(F17630000.0
F17962500.0
I70
I110
tp140
a(F18020000.0
F18207500.0
I65
I104
tp141
a(F18232500.0
F18335000.0
I67
I74
tp142
a(F18312500.0
F18512500.0
I65
I100
tp143
a(F18527500.0
F18895000.0
I72
I109
tp144
a(F18910000.0
F19110000.0
I70
I107
tp145
a(F19137500.0
F21272500.0
I63
I104
tp146
a(F21845000.0
F21977500.000000004
I75
I122
tp147
a(F22130000.0
F22225000.0
I72
I90
tp148
a(F22230000.0
F22435000.0
I75
I116
tp149
a(F22450000.0
F22890000.0
I72
I104
tp150
a(F23035000.0
F23187500.0
I75
I120
tp151
a(F23322499.999999996
F23412500.0
I72
I98
tp152
a(F23430000.0
F23637500.0
I75
I121
tp153
a(F23642500.0
F23937500.0
I72
I110
tp154
a(F24237500.0
F24360000.0
I75
I121
tp155
a(F24525000.0
F24634999.999999996
I72
I102
tp156
a(F24630000.0
F24827500.000000004
I75
I116
tp157
a(F24837500.0
F25195000.0
I72
I101
tp158
a(F25430000.0
F25572499.999999996
I76
I117
tp159
a(F25725000.0
F25782500.0
I72
I49
tp160
a(F25812500.0
F26027500.000000004
I76
I111
tp161
a(F26040000.0
F26310000.0
I72
I108
tp162
a(F26635000.0
F26930000.0
I77
I116
tp163
a(F27025000.0
F27192500.0
I77
I108
tp164
a(F27312500.0
F27487500.0
I77
I104
tp165
a(F27615000.0
F27784999.999999996
I77
I104
tp166
a(F27905000.0
F28065000.0
I75
I115
tp167
a(F28222500.0
F28377500.0
I74
I116
tp168
a(F28520000.0
F28702500.0
I72
I111
tp169
a(F28732500.0
F29330000.0
I70
I113
tp170
a(F29402500.000000004
F29477500.000000004
I71
I103
tp171
a(F29432500.0
F29892500.0
I72
I95
tp172
a(F30012500.0
F30065000.0
I66
I121
tp173
a(F30057500.0
F30535000.0
I67
I102
tp174
a(F30537500.0
F31217500.0
I65
I105
tp175
a(F31425000.0
F31530000.0
I63
I119
tp176
a(F31520000.0
F31725000.0
I65
I99
tp177
a(F31737500.0
F31820000.0
I63
I76
tp178
a(F31834999.999999996
F31990000.000000004
I70
I113
tp179
a(F32052500.0
F32400000.0
I70
I114
tp180
a(F32422500.0
F32610000.0
I65
I108
tp181
a(F32627500.000000004
F32742500.0
I67
I101
tp182
a(F32725000.0
F32937500.0
I65
I90
tp183
a(F32942500.0
F33645000.0
I72
I114
tp184
a(F33825000.0
F33922500.0
I70
I121
tp185
a(F33930000.0
F34120000.0
I72
I65
tp186
a(F34122500.0
F34187500.0
I70
I88
tp187
a(F34235000.0
F34380000.0
I75
I121
tp188
a(F34452500.0
F34615000.0
I75
I116
tp189
a(F34712500.0
F34785000.0
I74
I102
tp190
a(F34820000.0
F34985000.0
I77
I111
tp191
a(F35017500.0
F35177500.0
I75
I105
tp192
a(F35202500.0
F35352500.0
I72
I106
tp193
a(F35422500.0
F35542500.0
I67
I84
tp194
a(F35522500.0
F35615000.0
I66
I97
tp195
a(F35612500.0
F36052500.0
I65
I104
tp196
a(F36230000.0
F36335000.0
I63
I116
tp197
a(F36332500.0
F36537500.0
I65
I85
tp198
a(F36527500.0
F36600000.0
I63
I93
tp199
a(F36620000.0
F36782500.0
I70
I111
tp200
a(F36845000.0
F37162500.0
I70
I117
tp201
a(F37230000.0
F37410000.0
I65
I96
tp202
a(F37427500.0
F37540000.0
I67
I105
tp203
a(F37532500.0
F37695000.0
I65
I91
tp204
a(F37715000.0
F38090000.0
I72
I110
tp205
a(F38112500.0
F38305000.0
I70
I103
tp206
a(F38330000.0
F40580000.00000001
I75
I114
tp207
a(F79427500.0
F79532500.0
I63
I115
tp208
a(F79522500.0
F79727500.0
I65
I97
tp209
a(F79727500.0
F79802500.0
I63
I91
tp210
a(F79825000.0
F79982500.0
I70
I116
tp211
a(F80037500.0
F80337500.0
I70
I114
tp212
a(F80420000.0
F80612500.0
I65
I104
tp213
a(F80635000.00000001
F80825000.0
I67
I103
tp214
a(F80815000.0
F81010000.00000001
I65
I106
tp215
a(F81010000.00000001
F81630000.0
I72
I106
tp216
a(F81817500.0
F81895000.0
I70
I120
tp217
a(F81915000.0
F82067500.0
I72
I100
tp218
a(F82122500.0
F82162500.0
I70
I98
tp219
a(F82225000.0
F82372500.0
I75
I122
tp220
a(F82437500.0
F82642500.0
I75
I123
tp221
a(F82735000.00000001
F82785000.0
I74
I67
tp222
a(F82815000.0
F82967500.0
I77
I114
tp223
a(F83020000.0
F83212500.0
I75
I115
tp224
a(F83210000.0
F83360000.0
I72
I99
tp225
a(F83435000.0
F83555000.0
I67
I94
tp226
a(F83545000.0
F83642500.0
I66
I108
tp227
a(F83637500.0
F84117500.0
I65
I101
tp228
a(F84230000.0
F84337500.0
I63
I119
tp229
a(F84335000.0
F84512500.0
I65
I88
tp230
a(F84525000.0
F84607500.0
I63
I97
tp231
a(F84630000.0
F84772500.0
I70
I108
tp232
a(F84837500.0
F85157500.0
I70
I116
tp233
a(F85225000.0
F85407500.0
I65
I98
tp234
a(F85425000.0
F85620000.0
I67
I99
tp235
a(F85607500.0
F85815000.0
I65
I88
tp236
a(F85805000.0
F85962500.0
I72
I105
tp237
a(F86110000.00000001
F86267500.0
I70
I115
tp238
a(F86320000.0
F88760000.0
I67
I109
tp239
a(F89014999.99999999
F89135000.0
I63
I110
tp240
a(F89125000.0
F89350000.0
I65
I93
tp241
a(F89322500.0
F89417500.0
I63
I98
tp242
a(F89425000.0
F89585000.0
I70
I107
tp243
a(F89647500.0
F89995000.0
I70
I105
tp244
a(F90025000.0
F90220000.0
I65
I103
tp245
a(F90235000.00000001
F90367500.0
I67
I102
tp246
a(F90347500.00000001
F90532500.0
I65
I102
tp247
a(F90535000.00000001
F91392500.0
I72
I108
tp248
a(F91420000.0
F91532500.0
I70
I112
tp249
a(F91530000.0
F91714999.99999999
I72
I86
tp250
a(F91730000.0
F91782500.0
I70
I77
tp251
a(F91815000.0
F91990000.0
I75
I116
tp252
a(F92040000.0
F92202499.99999999
I75
I118
tp253
a(F92317500.0
F92380000.0
I74
I89
tp254
a(F92412500.0
F92602500.0
I77
I110
tp255
a(F92622500.0
F92822500.00000001
I75
I110
tp256
a(F92815000.0
F92962500.0
I72
I99
tp257
a(F93037500.0
F93142500.0
I67
I92
tp258
a(F93135000.0
F93237500.0
I66
I103
tp259
a(F93232500.0
F93695000.0
I65
I102
tp260
a(F93822500.0
F93897500.0
I63
I119
tp261
a(F93920000.0
F94075000.0
I65
I67
tp262
a(F94107500.0
F94205000.0
I63
I88
tp263
a(F94220000.0
F94362500.0
I70
I114
tp264
a(F94430000.0
F94762500.0
I70
I110
tp265
a(F94820000.0
F95007500.0
I65
I104
tp266
a(F95032500.0
F95135000.0
I67
I74
tp267
a(F95112500.0
F95312500.0
I65
I100
tp268
a(F95327500.0
F95695000.0
I72
I109
tp269
a(F95710000.00000001
F95910000.0
I70
I107
tp270
a(F95937500.0
F98072500.00000001
I63
I104
tp271
a(F98645000.0
F98777500.0
I75
I122
tp272
a(F98930000.0
F99025000.0
I72
I90
tp273
a(F99030000.0
F99235000.00000001
I75
I116
tp274
a(F99250000.0
F99690000.0
I72
I104
tp275
a(F99835000.00000001
F99987500.0
I75
I120
tp276
a(F100122500.0
F100212500.0
I72
I98
tp277
a(F100230000.0
F100437500.0
I75
I121
tp278
a(F100442500.0
F100737500.0
I72
I110
tp279
a(F101037500.0
F101160000.0
I75
I121
tp280
a(F101325000.0
F101435000.0
I72
I102
tp281
a(F101430000.0
F101627500.0
I75
I116
tp282
a(F101637500.0
F101995000.0
I72
I101
tp283
a(F102230000.0
F102372500.0
I76
I117
tp284
a(F102525000.0
F102582500.0
I72
I49
tp285
a(F102612500.0
F102827500.0
I76
I111
tp286
a(F102840000.0
F103110000.0
I72
I108
tp287
a(F103435000.00000001
F103730000.0
I77
I116
tp288
a(F103825000.0
F103992500.0
I77
I108
tp289
a(F104112500.0
F104287500.0
I77
I104
tp290
a(F104415000.0
F104585000.0
I77
I104
tp291
a(F104705000.0
F104865000.0
I75
I115
tp292
a(F105022500.0
F105177499.99999999
I74
I116
tp293
a(F105320000.0
F105502500.0
I72
I111
tp294
a(F105532500.0
F106130000.0
I70
I113
tp295
a(F106202500.0
F106277500.0
I71
I103
tp296
a(F106232500.0
F106692500.0
I72
I95
tp297
a(F106812500.0
F106864999.99999999
I66
I121
tp298
a(F106857500.0
F107335000.00000001
I67
I102
tp299
a(F107337500.0
F108017500.0
I65
I105
tp300
a(F108225000.0
F108330000.0
I63
I119
tp301
a(F108320000.0
F108525000.0
I65
I99
tp302
a(F108537500.0
F108620000.0
I63
I76
tp303
a(F108635000.0
F108790000.0
I70
I113
tp304
a(F108852499.99999999
F109200000.0
I70
I114
tp305
a(F109222500.0
F109410000.0
I65
I108
tp306
a(F109427500.0
F109542500.0
I67
I101
tp307
a(F109525000.0
F109737500.0
I65
I90
tp308
a(F109742500.0
F110445000.0
I72
I114
tp309
a(F110625000.0
F110722500.0
I70
I121
tp310
a(F110730000.0
F110920000.0
I72
I65
tp311
a(F110922500.0
F110987500.0
I70
I88
tp312
a(F111035000.0
F111180000.0
I75
I121
tp313
a(F111252499.99999999
F111415000.0
I75
I116
tp314
a(F111512500.0
F111585000.0
I74
I102
tp315
a(F111620000.0
F111785000.0
I77
I111
tp316
a(F111817500.0
F111977500.0
I75
I105
tp317
a(F112002499.99999999
F112152499.99999999
I72
I106
tp318
a(F112222500.0
F112342500.0
I67
I84
tp319
a(F112322500.00000001
F112414999.99999999
I66
I97
tp320
a(F112412500.0
F112852500.0
I65
I104
tp321
a(F113030000.0
F113135000.0
I63
I116
tp322
a(F113132500.0
F113337500.0
I65
I85
tp323
a(F113327500.0
F113400000.0
I63
I93
tp324
a(F113420000.0
F113582500.0
I70
I111
tp325
a(F113645000.0
F113962500.0
I70
I117
tp326
a(F114030000.0
F114210000.0
I65
I96
tp327
a(F114227500.0
F114340000.0
I67
I105
tp328
a(F114332500.0
F114495000.0
I65
I91
tp329
a(F114514999.99999999
F114889999.99999999
I72
I110
tp330
a(F114912500.0
F115105000.0
I70
I103
tp331
a(F115130000.0
F117380000.0
I75
I114
tp332
a(F117827500.0
F117947500.00000001
I63
I107
tp333
a(F117947500.00000001
F118125000.0
I65
I84
tp334
a(F118112500.0
F118217500.0
I63
I87
tp335
a(F118257500.0
F118472500.00000001
I72
I107
tp336
a(F118485000.0
F118577500.0
I67
I76
tp337
a(F118714999.99999999
F119997500.0
I70
I123
tp338
asS'bpm'
p339
F200.0
sS'meter'
p340
(ijazzr.rhythm.meter
Meter
p341
(dp342
S'beatspb'
p343
F4.0
sS'beatdiv'
p344
F4.0
sbsg75
(lp345
(F8.0
I0
I0
I1
tp346
a(F8.666666666666666
I0
I63
I5
tp347
a(F9.0
I1
I65
I5
tp348
a(F9.666666666666666
I2
I63
I5
tp349
a(F10.0
I3
I70
I5
tp350
a(F10.666666666666666
I4
I70
I5
tp351
a(F12.0
I5
I65
I0
tp352
a(F12.666666666666666
I6
I67
I0
tp353
a(F13.333333333333334
I7
I65
I0
tp354
a(F14.0
I8
I72
I0
tp355
a(F16.0
I9
I0
I1
tp356
a(F16.666666666666668
I9
I70
I5
tp357
a(F17.0
I10
I72
I5
tp358
a(F17.666666666666668
I11
I70
I5
tp359
a(F18.0
I12
I75
I5
tp360
a(F18.666666666666668
I13
I75
I5
tp361
a(F19.666666666666668
I14
I74
I5
tp362
a(F20.0
I15
I77
I0
tp363
a(F20.666666666666668
I16
I75
I0
tp364
a(F21.333333333333332
I17
I72
I0
tp365
a(F22.0
I18
I67
I0
tp366
a(F22.333333333333332
I19
I66
I0
tp367
a(F22.666666666666668
I20
I65
I0
tp368
a(F24.0
I21
I0
I1
tp369
a(F24.666666666666668
I21
I63
I5
tp370
a(F25.0
I22
I65
I5
tp371
a(F25.666666666666668
I23
I63
I5
tp372
a(F26.0
I24
I70
I5
tp373
a(F26.666666666666668
I25
I70
I5
tp374
a(F28.0
I26
I65
I0
tp375
a(F28.666666666666668
I27
I67
I0
tp376
a(F29.333333333333332
I28
I65
I0
tp377
a(F30.0
I29
I72
I0
tp378
a(F31.0
I30
I70
I5
tp379
a(F31.666666666666668
I31
I67
I5
tp380
a(F38.0
I31
I0
I1
tp381
a(F40.666666666666664
I32
I63
I5
tp382
a(F41.0
I33
I65
I5
tp383
a(F41.666666666666664
I34
I63
I5
tp384
a(F42.0
I35
I70
I5
tp385
a(F42.666666666666664
I36
I70
I5
tp386
a(F44.0
I37
I65
I5
tp387
a(F44.666666666666664
I38
I67
I5
tp388
a(F45.0
I39
I65
I5
tp389
a(F45.666666666666664
I40
I72
I5
tp390
a(F48.0
I41
I0
I1
tp391
a(F48.666666666666664
I41
I70
I5
tp392
a(F49.0
I42
I72
I5
tp393
a(F49.666666666666664
I43
I70
I5
tp394
a(F50.0
I44
I75
I5
tp395
a(F50.666666666666664
I45
I75
I5
tp396
a(F51.666666666666664
I46
I74
I5
tp397
a(F52.0
I47
I77
I0
tp398
a(F52.666666666666664
I48
I75
I0
tp399
a(F53.333333333333336
I49
I72
I0
tp400
a(F54.0
I50
I67
I0
tp401
a(F54.333333333333336
I51
I66
I0
tp402
a(F54.666666666666664
I52
I65
I0
tp403
a(F56.0
I53
I0
I1
tp404
a(F56.666666666666664
I53
I63
I5
tp405
a(F57.0
I54
I65
I5
tp406
a(F57.666666666666664
I55
I63
I5
tp407
a(F58.0
I56
I70
I5
tp408
a(F58.666666666666664
I57
I70
I5
tp409
a(F60.0
I58
I65
I5
tp410
a(F60.666666666666664
I59
I67
I5
tp411
a(F61.0
I60
I65
I5
tp412
a(F61.666666666666664
I61
I72
I5
tp413
a(F63.0
I62
I70
I5
tp414
a(F63.666666666666664
I63
I63
I5
tp415
a(F70.0
I64
I0
I1
tp416
a(F72.66666666666667
I64
I75
I5
tp417
a(F73.66666666666667
I65
I72
I5
tp418
a(F74.0
I66
I75
I5
tp419
a(F74.66666666666667
I67
I72
I5
tp420
a(F76.0
I68
I0
I1
tp421
a(F76.66666666666667
I68
I75
I5
tp422
a(F77.66666666666667
I69
I72
I5
tp423
a(F78.0
I70
I75
I5
tp424
a(F78.66666666666667
I71
I72
I5
tp425
a(F80.0
I72
I0
I1
tp426
a(F80.66666666666667
I72
I75
I5
tp427
a(F81.66666666666667
I73
I72
I5
tp428
a(F82.0
I74
I75
I5
tp429
a(F82.66666666666667
I75
I72
I5
tp430
a(F84.0
I76
I0
I1
tp431
a(F84.66666666666667
I76
I76
I5
tp432
a(F85.66666666666667
I77
I72
I5
tp433
a(F86.0
I78
I76
I5
tp434
a(F86.66666666666667
I79
I72
I5
tp435
a(F88.0
I80
I0
I1
tp436
a(F88.66666666666667
I80
I77
I5
tp437
a(F90.0
I81
I77
I0
tp438
a(F91.0
I82
I77
I0
tp439
a(F92.0
I83
I77
I0
tp440
a(F93.0
I84
I75
I0
tp441
a(F94.0
I85
I74
I0
tp442
a(F95.0
I86
I72
I5
tp443
a(F95.66666666666667
I87
I70
I5
tp444
a(F98.0
I88
I71
I2
tp445
a(F98.0
I89
I72
I0
tp446
a(F100.0
I90
I66
I2
tp447
a(F100.0
I91
I67
I0
tp448
a(F101.66666666666667
I92
I65
I5
tp449
a(F104.0
I93
I0
I1
tp450
a(F104.66666666666667
I93
I63
I5
tp451
a(F105.0
I94
I65
I5
tp452
a(F105.66666666666667
I95
I63
I5
tp453
a(F106.0
I96
I70
I5
tp454
a(F106.66666666666667
I97
I70
I5
tp455
a(F108.0
I98
I65
I5
tp456
a(F108.66666666666667
I99
I67
I5
tp457
a(F109.0
I100
I65
I5
tp458
a(F109.66666666666667
I101
I72
I5
tp459
a(F112.0
I102
I0
I1
tp460
a(F112.66666666666667
I102
I70
I5
tp461
a(F113.0
I103
I72
I5
tp462
a(F113.66666666666667
I104
I70
I5
tp463
a(F114.0
I105
I75
I5
tp464
a(F114.66666666666667
I106
I75
I5
tp465
a(F115.66666666666667
I107
I74
I5
tp466
a(F116.0
I108
I77
I0
tp467
a(F116.66666666666667
I109
I75
I0
tp468
a(F117.33333333333333
I110
I72
I0
tp469
a(F118.0
I111
I67
I0
tp470
a(F118.33333333333333
I112
I66
I0
tp471
a(F118.66666666666667
I113
I65
I0
tp472
a(F120.0
I114
I0
I1
tp473
a(F120.66666666666667
I114
I63
I5
tp474
a(F121.0
I115
I65
I5
tp475
a(F121.66666666666667
I116
I63
I5
tp476
a(F122.0
I117
I70
I5
tp477
a(F122.66666666666667
I118
I70
I5
tp478
a(F124.0
I119
I65
I5
tp479
a(F124.66666666666667
I120
I67
I5
tp480
a(F125.0
I121
I65
I5
tp481
a(F125.66666666666667
I122
I72
I5
tp482
a(F127.0
I123
I70
I5
tp483
a(F127.66666666666667
I124
I75
I5
tp484
a(F132.0
I125
I0
I1
tp485
a(F136.0
I125
I0
I4
tp486
asS'metadata'
p487
(dp488
S'beatdiv'
p489
F4.0
sS'bpm'
p490
F200.0
sS'beatspb'
p491
F4.0
sS'name'
p492
S'aint_misbehavin-12-8'
p493
sS'offset'
p494
F0.0
ssbsS'beats'
p495
(lp496
sS'previous'
p497
F2.666666666666666
sbasg16
F2.9377889681574926e-09
sg17
I1
sg18
F2.9377889681574926e-09
sg19
I4
sg20
(F0.0
F2415000.0
tp498
sg22
F8.0
sg23
I2
sg24
(lp499
g0
(g1
g2
Ntp500
Rp501
(dp502
g6
(lp503
I3
aI2
aI2
asg8
(F0.0
(I0
I0
F4.0
tp504
tp505
sg11
(lp506
F2415000.0
aF3025000.0
asg13
F1.0
sg14
(lp507
Nag0
(g64
g2
Ntp508
Rp509
(dp510
g68
F2.0
sg11
g69
sg8
(lp511
sg71
I4
sg13
Nsg14
g72
sg24
Nsg22
Nsg6
g73
sg18
F1.0
sg19
I0
sg20
Nsg74
F2.666666666666666
sg23
I0
sg75
g76
sg495
g496
sg497
F1.666666666666666
sbasg16
F3.2086072258624124e-05
sg17
I1
sg18
F3.2086072258624124e-05
sg19
I3
sg20
(F0.0
F2415000.0
tp512
sg22
F4.0
sg23
I2
sg24
(lp513
g0
(g1
g2
Ntp514
Rp515
(dp516
g6
(lp517
I3
aI2
asg8
(F0.0
(I0
I0
F2.0
tp518
tp519
sg11
(lp520
F2415000.0
aF2722500.0
asg13
F1.0
sg14
(lp521
Nag0
(g64
g2
Ntp522
Rp523
(dp524
g68
F1.0
sg11
g69
sg8
(lp525
sg71
I2
sg13
Nsg14
g72
sg24
Nsg22
Nsg6
g73
sg18
F1.0
sg19
I0
sg20
Nsg74
F1.666666666666666
sg23
I0
sg75
g76
sg495
g496
sg497
F0.6666666666666661
sbasg16
F0.008819547471195137
sg17
I1
sg18
F0.008819547471195137
sg19
I2
sg20
(F0.5
F2722500.0
tp526
sg22
F2.0
sg23
I2
sg24
(lp527
g0
(g1
g2
Ntp528
Rp529
(dp530
g6
(lp531
I3
asg8
(F0.0
(I0
I0
F1.0
tp532
tp533
sg11
(lp534
NaNaF2627500.0
asg13
F1.0
sg14
(lp535
NaNag0
(g64
g2
Ntp536
Rp537
(dp538
g68
F0.6666666666666661
sg11
g69
sg8
(lp539
sg71
I1
sg13
Nsg14
g72
sg24
Nsg22
Nsg6
g73
sg18
F1.0
sg19
I0
sg20
Nsg74
F1.0
sg23
I0
sg75
g76
sg495
g496
sg497
I0
sbasg16
F0.1358695652173913
sg17
I1
sg18
F0.1358695652173913
sg19
I1
sg20
(F0.6666666666666666
F2627500.0
tp540
sg22
F0.9999999999999991
sg23
I2
sg24
(lp541
g0
(cjazzr.rhythm.symbol
Tie
p542
g2
Ntp543
Rp544
(dp545
g6
g73
sg8
(lp546
sg11
g69
sg13
Nsg14
g72
sg19
I0
sg18
F1.0
sg22
Nsg20
Nsg23
I1
sg24
Nsg495
g496
sbag0
(g542
g2
Ntp547
Rp548
(dp549
g6
g73
sg8
(lp550
sg11
g69
sg13
Nsg14
g72
sg19
I0
sg18
F1.0
sg22
Nsg20
Nsg23
I1
sg24
Nsg495
g496
sbag537
asg495
(lp551
I0
aF0.33333333333333304
aF0.6666666666666661
asbag0
(g1
g2
Ntp552
Rp553
(dp554
g6
(lp555
I3
asg8
(F0.0
(F0.6666666666666661
F1.0
F2.0
tp556
tp557
sg11
(lp558
F2722500.0
aF2825000.0
aF2927500.0
asg13
F1.0
sg14
(lp559
g523
aNag0
(g64
g2
Ntp560
Rp561
(dp562
g68
F1.666666666666666
sg11
g69
sg8
(lp563
sg71
I3
sg13
Nsg14
g72
sg24
Nsg22
Nsg6
g73
sg18
F1.0
sg19
I0
sg20
Nsg74
F2.0
sg23
I0
sg75
g76
sg495
g496
sg497
F1.0
sbasg16
F0.16474184782608695
sg17
I1
sg18
F0.16474184782608695
sg19
I1
sg20
(F0.0
F2722500.0
tp564
sg22
F0.9999999999999991
sg23
I2
sg24
(lp565
g523
ag0
(g542
g2
Ntp566
Rp567
(dp568
g6
g73
sg8
(lp569
sg11
g69
sg13
Nsg14
g72
sg19
I0
sg18
F1.0
sg22
Nsg20
Nsg23
I1
sg24
Nsg495
g496
sbag561
asg495
(lp570
F1.0
aF1.333333333333333
aF1.666666666666666
asbasg495
(lp571
I0
aF1.0
asbag0
(g1
g2
Ntp572
Rp573
(dp574
g6
(lp575
I3
aI2
asg8
(F0.0
(F1.666666666666666
F2.0
F4.0
tp576
tp577
sg11
(lp578
F3025000.0
aF3343750.0
asg13
F1.0
sg14
(lp579
g509
aNasg16
F0.00923315383536153
sg17
I1
sg18
F0.00923315383536153
sg19
I2
sg20
(F0.0
F3025000.0
tp580
sg22
F1.9999999999999982
sg23
I2
sg24
(lp581
g0
(g1
g2
Ntp582
Rp583
(dp584
g6
(lp585
I3
asg8
(F0.0
(F1.666666666666666
F2.0
F4.0
tp586
tp587
sg11
(lp588
F3025000.0
aF3131250.0
aF3237500.0
asg13
F1.0
sg14
(lp589
g509
aNag0
(g64
g2
Ntp590
Rp591
(dp592
g68
F2.666666666666666
sg11
g69
sg8
(lp593
sg71
I5
sg13
Nsg14
g72
sg24
Nsg22
Nsg6
g73
sg18
F1.0
sg19
I0
sg20
Nsg74
F4.0
sg23
I0
sg75
g76
sg495
g496
sg497
F2.0
sbasg16
F0.16474184782608695
sg17
I1
sg18
F0.16474184782608695
sg19
I1
sg20
(F0.0
F3025000.0
tp594
sg22
F0.9999999999999991
sg23
I2
sg24
(lp595
g509
ag0
(g542
g2
Ntp596
Rp597
(dp598
g6
g73
sg8
(lp599
sg11
g69
sg13
Nsg14
g72
sg19
I0
sg18
F1.0
sg22
Nsg20
Nsg23
I1
sg24
Nsg495
g496
sbag591
asg495
(lp600
F2.0
aF2.333333333333333
aF2.666666666666666
asbag0
(g542
g2
Ntp601
Rp602
(dp603
g6
g73
sg8
(lp604
sg11
g69
sg13
Nsg14
g72
sg19
I0
sg18
F1.0
sg22
Nsg20
Nsg23
I1
sg24
Nsg495
g496
sbasg495
(lp605
F2.0
aF2.999999999999999
asbasg495
(lp606
I0
aF2.0
asbag0
(g1
g2
Ntp607
Rp608
(dp609
g6
(lp610
I3
aI2
asg8
(F0.0
(F2.666666666666666
F4.0
F8.666666666666668
tp611
tp612
sg11
(lp613
F3620000.0
aF4210000.0
asg13
F1.0
sg14
(lp614
g66
ag0
(g64
g2
Ntp615
Rp616
(dp617
g68
F6.0
sg11
g69
sg8
(lp618
sg71
I9
sg13
Nsg14
g72
sg24
Nsg22
Nsg6
g73
sg18
F1.0
sg19
I0
sg20
Nsg74
F8.666666666666668
sg23
I0
sg75
g76
sg495
g496
sg497
F5.333333333333334
sbasg16
F0.00023237203154536862
sg17
I1
sg18
F0.00023237203154536862
sg19
I2
sg20
(F0.0
F3620000.0
tp619
sg22
F4.0
sg23
I2
sg24
(lp620
g0
(g1
g2
Ntp621
Rp622
(dp623
g6
(lp624
I3
asg8
(F0.0
(F2.666666666666666
F4.0
F6.0
tp625
tp626
sg11
(lp627
F3620000.0
aF3835000.0
aF4015000.0
asg13
F1.0
sg14
(lp628
g66
ag0
(g64
g2
Ntp629
Rp630
(dp631
g68
F4.666666666666666
sg11
g69
sg8
(lp632
sg71
I7
sg13
Nsg14
g72
sg24
Nsg22
Nsg6
g73
sg18
F1.0
sg19
I0
sg20
Nsg74
F5.333333333333334
sg23
I0
sg75
g76
sg495
g496
sg497
F4.0
sbag0
(g64
g2
Ntp633
Rp634
(dp635
g68
F5.333333333333334
sg11
g69
sg8
(lp636
sg71
I8
sg13
Nsg14
g72
sg24
Nsg22
Nsg6
g73
sg18
F1.0
sg19
I0
sg20
Nsg74
F6.0
sg23
I0
sg75
g76
sg495
g496
sg497
F4.666666666666666
sbasg16
F0.012907608695652174
sg17
I1
sg18
F0.012907608695652174
sg19
I1
sg20
(F0.0
F3620000.0
tp637
sg22
F1.9999999999999982
sg23
I2
sg24
(lp638
g66
ag630
ag634
asg495
(lp639
F4.0
aF4.666666666666666
aF5.333333333333334
asbag616
asg495
(lp640
F4.0
aF6.0
asbasg495
(lp641
I0
aF4.0
asbag0
(g1
g2
Ntp642
Rp643
(dp644
g6
(lp645
I3
aI2
aI2
aI2
asg8
(F0.0
(F6.0
I8
F16.666666666666668
tp646
tp647
sg11
(lp648
F4803750.0
aF6015000.0
asg13
F1.0
sg14
(lp649
Nag0
(g64
g2
Ntp650
Rp651
(dp652
g68
F12.0
sg11
g69
sg8
(lp653
sg71
I17
sg13
Nsg14
g72
sg24
Nsg22
Nsg6
g73
sg18
F1.0
sg19
I0
sg20
Nsg74
F12.666666666666668
sg23
I0
sg75
g76
sg495
g496
sg497
F11.666666666666668
sbasg16
F4.4431489795837785e-11
sg17
I1
sg18
F4.4431489795837785e-11
sg19
I4
sg20
(F0.0
F4803750.0
tp654
sg22
F8.0
sg23
I2
sg24
(lp655
g0
(g1
g2
Ntp656
Rp657
(dp658
g6
(lp659
I3
aI2
aI2
asg8
(F0.0
(F6.0
I8
F12.0
tp660
tp661
sg11
(lp662
F4803750.0
aF5425000.0
asg13
F1.0
sg14
(lp663
Nag0
(g64
g2
Ntp664
Rp665
(dp666
g68
F10.0
sg11
g69
sg8
(lp667
sg71
I14
sg13
Nsg14
g72
sg24
Nsg22
Nsg6
g73
sg18
F1.0
sg19
I0
sg20
Nsg74
F10.666666666666668
sg23
I0
sg75
g76
sg495
g496
sg497
F9.666666666666668
sbasg16
F3.064875149868575e-05
sg17
I1
sg18
F3.064875149868575e-05
sg19
I3
sg20
(F0.0
F4803750.0
tp668
sg22
F4.0
sg23
I2
sg24
(lp669
g0
(g1
g2
Ntp670
Rp671
(dp672
g6
(lp673
I3
aI2
asg8
(F0.0
(F6.0
I8
F10.0
tp674
tp675
sg11
(lp676
F4803750.0
aF5115000.0
asg13
F1.0
sg14
(lp677
Nag0
(g64
g2
Ntp678
Rp679
(dp680
g68
F9.0
sg11
g69
sg8
(lp681
sg71
I12
sg13
Nsg14
g72
sg24
Nsg22
Nsg6
g73
sg18
F1.0
sg19
I0
sg20
Nsg74
F9.666666666666668
sg23
I0
sg75
g76
sg495
g496
sg497
F8.666666666666668
sbasg16
F0.008819547471195137
sg17
I1
sg18
F0.008819547471195137
sg19
I2
sg20
(F0.5
F5115000.0
tp682
sg22
F2.0
sg23
I2
sg24
(lp683
g0
(g1
g2
Ntp684
Rp685
(dp686
g6
(lp687
I3
asg8
(F0.0
(F6.0
I8
F9.0
tp688
tp689
sg11
(lp690
NaNaF5017500.0
asg13
F1.0
sg14
(lp691
NaNag0
(g64
g2
Ntp692
Rp693
(dp694
g68
F8.666666666666668
sg11
g69
sg8
(lp695
sg71
I11
sg13
Nsg14
g72
sg24
Nsg22
Nsg6
g73
sg18
F1.0
sg19
I0
sg20
Nsg74
F9.0
sg23
I0
sg75
g76
sg495
g496
sg497
F6.0
sbasg16
F0.1358695652173913
sg17
I1
sg18
F0.1358695652173913
sg19
I1
sg20
(F0.6666666666666666
F5017500.0
tp696
sg22
F1.0000000000000018
sg23
I2
sg24
(lp697
g0
(g542
g2
Ntp698
Rp699
(dp700
g6
g73
sg8
(lp701
sg11
g69
sg13
Nsg14
g72
sg19
I0
sg18
F1.0
sg22
Nsg20
Nsg23
I1
sg24
Nsg495
g496
sbag0
(g542
g2
Ntp702
Rp703
(dp704
g6
g73
sg8
(lp705
sg11
g69
sg13
Nsg14
g72
sg19
I0
sg18
F1.0
sg22
Nsg20
Nsg23
I1
sg24
Nsg495
g496
sbag693
asg495
(lp706
I8
aF8.333333333333334
aF8.666666666666668
asbag0
(g1
g2
Ntp707
Rp708
(dp709
g6
(lp710
I3
asg8
(F0.0
(F8.666666666666668
F9.0
F10.0
tp711
tp712
sg11
(lp713
F5115000.0
aF5218750.0
aF5322500.0
asg13
F1.0
sg14
(lp714
g679
aNag0
(g64
g2
Ntp715
Rp716
(dp717
g68
F9.666666666666668
sg11
g69
sg8
(lp718
sg71
I13
sg13
Nsg14
g72
sg24
Nsg22
Nsg6
g73
sg18
F1.0
sg19
I0
sg20
Nsg74
F10.0
sg23
I0
sg75
g76
sg495
g496
sg497
F9.0
sbasg16
F0.16474184782608695
sg17
I1
sg18
F0.16474184782608695
sg19
I1
sg20
(F0.0
F5115000.0
tp719
sg22
F1.0000000000000018
sg23
I2
sg24
(lp720
g679
ag0
(g542
g2
Ntp721
Rp722
(dp723
g6
g73
sg8
(lp724
sg11
g69
sg13
Nsg14
g72
sg19
I0
sg18
F1.0
sg22
Nsg20
Nsg23
I1
sg24
Nsg495
g496
sbag716
asg495
(lp725
F9.0
aF9.333333333333334
aF9.666666666666668
asbasg495
(lp726
I8
aF9.0
asbag0
(g1
g2
Ntp727
Rp728
(dp729
g6
(lp730
I3
aI2
asg8
(F0.0
(F9.666666666666668
F10.0
F12.0
tp731
tp732
sg11
(lp733
F5425000.0
aF5743750.0
asg13
F1.0
sg14
(lp734
g665
aNasg16
F0.008819547471195137
sg17
I1
sg18
F0.008819547471195137
sg19
I2
sg20
(F0.0
F5425000.0
tp735
sg22
F2.0
sg23
I2
sg24
(lp736
g0
(g1
g2
Ntp737
Rp738
(dp739
g6
(lp740
I3
asg8
(F0.0
(F9.666666666666668
F10.0
F11.666666666666668
tp741
tp742
sg11
(lp743
F5425000.0
aF5531250.0
aF5637500.0
asg13
F1.0
sg14
(lp744
g665
aNag0
(g64
g2
Ntp745
Rp746
(dp747
g68
F10.666666666666668
sg11
g69
sg8
(lp748
sg71
I15
sg13
Nsg14
g72
sg24
Nsg22
Nsg6
g73
sg18
F1.0
sg19
I0
sg20
Nsg74
F11.666666666666668
sg23
I0
sg75
g76
sg495
g496
sg497
F10.0
sbasg16
F0.16474184782608695
sg17
I1
sg18
F0.16474184782608695
sg19
I1
sg20
(F0.0
F5425000.0
tp749
sg22
F1.0000000000000018
sg23
I2
sg24
(lp750
g665
ag0
(g542
g2
Ntp751
Rp752
(dp753
g6
g73
sg8
(lp754
sg11
g69
sg13
Nsg14
g72
sg19
I0
sg18
F1.0
sg22
Nsg20
Nsg23
I1
sg24
Nsg495
g496
sbag746
asg495
(lp755
F10.0
aF10.333333333333334
aF10.666666666666668
asbag0
(g1
g2
Ntp756
Rp757
(dp758
g6
(lp759
I3
asg8
(F0.0
(F10.666666666666668
I11
F12.0
tp760
tp761
sg11
(lp762
NaNaF5935000.000000001
asg13
F1.0
sg14
(lp763
NaNag0
(g64
g2
Ntp764
Rp765
(dp766
g68
F11.666666666666668
sg11
g69
sg8
(lp767
sg71
I16
sg13
Nsg14
g72
sg24
Nsg22
Nsg6
g73
sg18
F1.0
sg19
I0
sg20
Nsg74
F12.0
sg23
I0
sg75
g76
sg495
g496
sg497
F10.666666666666668
sbasg16
F0.1358695652173913
sg17
I1
sg18
F0.1358695652173913
sg19
I1
sg20
(F0.6666666666666666
F5935000.000000001
tp768
sg22
F1.0000000000000018
sg23
I2
sg24
(lp769
g0
(g542
g2
Ntp770
Rp771
(dp772
g6
g73
sg8
(lp773
sg11
g69
sg13
Nsg14
g72
sg19
I0
sg18
F1.0
sg22
Nsg20
Nsg23
I1
sg24
Nsg495
g496
sbag0
(g542
g2
Ntp774
Rp775
(dp776
g6
g73
sg8
(lp777
sg11
g69
sg13
Nsg14
g72
sg19
I0
sg18
F1.0
sg22
Nsg20
Nsg23
I1
sg24
Nsg495
g496
sbag765
asg495
(lp778
I11
aF11.333333333333334
aF11.666666666666668
asbasg495
(lp779
F10.0
aI11
asbasg495
(lp780
I8
aF10.0
asbag0
(g1
g2
Ntp781
Rp782
(dp783
g6
(lp784
I3
aI2
aI2
asg8
(F0.0
(F11.666666666666668
F12.0
F16.666666666666668
tp785
tp786
sg11
(lp787
F6015000.0
aF6635000.0
asg13
F1.0
sg14
(lp788
g651
ag0
(g64
g2
Ntp789
Rp790
(dp791
g68
F14.0
sg11
g69
sg8
(lp792
sg71
I20
sg13
Nsg14
g72
sg24
Nsg22
Nsg6
g73
sg18
F1.0
sg19
I0
sg20
Nsg74
F14.333333333333332
sg23
I0
sg75
g76
sg495
g496
sg497
F13.333333333333332
sbasg16
F3.6792381858033e-06
sg17
I1
sg18
F3.6792381858033e-06
sg19
I3
sg20
(F0.0
F6015000.0
tp793
sg22
F4.0
sg23
I2
sg24
(lp794
g0
(g1
g2
Ntp795
Rp796
(dp797
g6
(lp798
I3
asg8
(F0.0
(F11.666666666666668
F12.0
F14.0
tp799
tp800
sg11
(lp801
F6015000.0
aF6220000.0
aF6410000.0
asg13
F1.0
sg14
(lp802
g651
ag0
(g64
g2
Ntp803
Rp804
(dp805
g68
F12.666666666666668
sg11
g69
sg8
(lp806
sg71
I18
sg13
Nsg14
g72
sg24
Nsg22
Nsg6
g73
sg18
F1.0
sg19
I0
sg20
Nsg74
F13.333333333333332
sg23
I0
sg75
g76
sg495
g496
sg497
F12.0
sbag0
(g64
g2
Ntp807
Rp808
(dp809
g68
F13.333333333333332
sg11
g69
sg8
(lp810
sg71
I19
sg13
Nsg14
g72
sg24
Nsg22
Nsg6
g73
sg18
F1.0
sg19
I0
sg20
Nsg74
F14.0
sg23
I0
sg75
g76
sg495
g496
sg497
F12.666666666666668
sbasg16
F0.012907608695652174
sg17
I1
sg18
F0.012907608695652174
sg19
I1
sg20
(F0.0
F6015000.0
tp811
sg22
F2.0000000000000036
sg23
I2
sg24
(lp812
g651
ag804
ag808
asg495
(lp813
F12.0
aF12.666666666666668
aF13.333333333333332
asbag0
(g1
g2
Ntp814
Rp815
(dp816
g6
(lp817
I3
aI2
asg8
(F0.0
(F13.333333333333332
F14.0
F16.666666666666668
tp818
tp819
sg11
(lp820
F6635000.0
aF6965000.0
asg13
F1.0
sg14
(lp821
g790
aNasg16
F0.000723422362358223
sg17
I1
sg18
F0.000723422362358223
sg19
I2
sg20
(F0.0
F6635000.0
tp822
sg22
F1.999999999999993
sg23
I2
sg24
(lp823
g0
(g1
g2
Ntp824
Rp825
(dp826
g6
(lp827
I3
asg8
(F0.0
(F13.333333333333332
F14.0
F16.666666666666668
tp828
tp829
sg11
(lp830
F6635000.0
aF6745000.0
aF6837500.0
asg13
F1.0
sg14
(lp831
g790
ag0
(g64
g2
Ntp832
Rp833
(dp834
g68
F14.333333333333332
sg11
g69
sg8
(lp835
sg71
I21
sg13
Nsg14
g72
sg24
Nsg22
Nsg6
g73
sg18
F1.0
sg19
I0
sg20
Nsg74
F14.666666666666668
sg23
I0
sg75
g76
sg495
g496
sg497
F14.0
sbag0
(g64
g2
Ntp836
Rp837
(dp838
g68
F14.666666666666668
sg11
g69
sg8
(lp839
sg71
I22
sg13
Nsg14
g72
sg24
Nsg22
Nsg6
g73
sg18
F1.0
sg19
I0
sg20
Nsg74
F16.666666666666668
sg23
I0
sg75
g76
sg495
g496
sg497
F14.333333333333332
sbasg16
F0.012907608695652174
sg17
I1
sg18
F0.012907608695652174
sg19
I1
sg20
(F0.0
F6635000.0
tp840
sg22
F0.9999999999999964
sg23
I2
sg24
(lp841
g790
ag833
ag837
asg495
(lp842
F14.0
aF14.333333333333332
aF14.666666666666668
asbag0
(g542
g2
Ntp843
Rp844
(dp845
g6
g73
sg8
(lp846
sg11
g69
sg13
Nsg14
g72
sg19
I0
sg18
F1.0
sg22
Nsg20
Nsg23
I1
sg24
Nsg495
g496
sbasg495
(lp847
F14.0
aF14.999999999999996
asbasg495
(lp848
F12.0
aF14.0
asbasg495
(lp849
I8
aF12.0
asbasg495
(lp850
I0
aI8
asbag0
(g1
g2
Ntp851
Rp852
(dp853
g6
(lp854
I3
aI2
aI2
aI2
aI2
asg8
(F0.0
(F14.666666666666668
I16
F32.666666666666664
tp855
tp856
sg11
(lp857
F7250000.0
aF9600000.0
asg13
F1.0
sg14
(lp858
NaNasg16
F3.6903373677227836e-11
sg17
I1
sg18
F3.6903373677227836e-11
sg19
I5
sg20
(F0.0
F7250000.0
tp859
sg22
F16.0
sg23
I2
sg24
(lp860
g0
(g1
g2
Ntp861
Rp862
(dp863
g6
(lp864
I3
aI2
aI2
aI2
asg8
(F0.0
(F14.666666666666668
I16
F32.666666666666664
tp865
tp866
sg11
(lp867
F7250000.0
aF8425000.0
asg13
F1.0
sg14
(lp868
Nag0
(g64
g2
Ntp869
Rp870
(dp871
g68
F20.0
sg11
g69
sg8
(lp872
sg71
I29
sg13
Nsg14
g72
sg24
Nsg22
Nsg6
g73
sg18
F1.0
sg19
I0
sg20
Nsg74
F20.666666666666668
sg23
I0
sg75
g76
sg495
g496
sg497
F18.666666666666668
sbasg16
F6.584456491258106e-10
sg17
I1
sg18
F6.584456491258106e-10
sg19
I4
sg20
(F0.0
F7250000.0
tp873
sg22
F8.0
sg23
I2
sg24
(lp874
g0
(g1
g2
Ntp875
Rp876
(dp877
g6
(lp878
I3
aI2
aI2
asg8
(F0.0
(F14.666666666666668
I16
F20.0
tp879
tp880
sg11
(lp881
F7250000.0
aF7830000.0
asg13
F1.0
sg14
(lp882
Nag0
(g64
g2
Ntp883
Rp884
(dp885
g68
F18.0
sg11
g69
sg8
(lp886
sg71
I27
sg13
Nsg14
g72
sg24
Nsg22
Nsg6
g73
sg18
F1.0
sg19
I0
sg20
Nsg74
F18.666666666666668
sg23
I0
sg75
g76
sg495
g496
sg497
F17.666666666666668
sbasg16
F3.2086072258624124e-05
sg17
I1
sg18
F3.2086072258624124e-05
sg19
I3
sg20
(F0.0
F7250000.0
tp887
sg22
F4.0
sg23
I2
sg24
(lp888
g0
(g1
g2
Ntp889
Rp890
(dp891
g6
(lp892
I3
aI2
asg8
(F0.0
(F14.666666666666668
I16
F18.0
tp893
tp894
sg11
(lp895
F7250000.0
aF7535000.0
asg13
F1.0
sg14
(lp896
Nag0
(g64
g2
Ntp897
Rp898
(dp899
g68
F17.0
sg11
g69
sg8
(lp900
sg71
I25
sg13
Nsg14
g72
sg24
Nsg22
Nsg6
g73
sg18
F1.0
sg19
I0
sg20
Nsg74
F17.666666666666668
sg23
I0
sg75
g76
sg495
g496
sg497
F16.666666666666668
sbasg16
F0.008819547471195137
sg17
I1
sg18
F0.008819547471195137
sg19
I2
sg20
(F0.5
F7535000.0
tp901
sg22
F2.0
sg23
I2
sg24
(lp902
g0
(g1
g2
Ntp903
Rp904
(dp905
g6
(lp906
I3
asg8
(F0.0
(F14.666666666666668
I16
F17.0
tp907
tp908
sg11
(lp909
NaNaF7430000.0
asg13
F1.0
sg14
(lp910
NaNag0
(g64
g2
Ntp911
Rp912
(dp913
g68
F16.666666666666668
sg11
g69
sg8
(lp914
sg71
I24
sg13
Nsg14
g72
sg24
Nsg22
Nsg6
g73
sg18
F1.0
sg19
I0
sg20
Nsg74
F17.0
sg23
I0
sg75
g76
sg495
g496
sg497
F14.666666666666668
sbasg16
F0.1358695652173913
sg17
I1
sg18
F0.1358695652173913
sg19
I1
sg20
(F0.6666666666666666
F7430000.0
tp915
sg22
F1.000000000000007
sg23
I2
sg24
(lp916
g0
(g542
g2
Ntp917
Rp918
(dp919
g6
g73
sg8
(lp920
sg11
g69
sg13
Nsg14
g72
sg19
I0
sg18
F1.0
sg22
Nsg20
Nsg23
I1
sg24
Nsg495
g496
sbag0
(g542
g2
Ntp921
Rp922
(dp923
g6
g73
sg8
(lp924
sg11
g69
sg13
Nsg14
g72
sg19
I0
sg18
F1.0
sg22
Nsg20
Nsg23
I1
sg24
Nsg495
g496
sbag912
asg495
(lp925
I16
aF16.333333333333336
aF16.666666666666668
asbag0
(g1
g2
Ntp926
Rp927
(dp928
g6
(lp929
I3
asg8
(F0.0
(F16.666666666666668
F17.0
F18.0
tp930
tp931
sg11
(lp932
F7535000.0
aF7630000.0
aF7725000.0
asg13
F1.0
sg14
(lp933
g898
aNag0
(g64
g2
Ntp934
Rp935
(dp936
g68
F17.666666666666668
sg11
g69
sg8
(lp937
sg71
I26
sg13
Nsg14
g72
sg24
Nsg22
Nsg6
g73
sg18
F1.0
sg19
I0
sg20
Nsg74
F18.0
sg23
I0
sg75
g76
sg495
g496
sg497
F17.0
sbasg16
F0.16474184782608695
sg17
I1
sg18
F0.16474184782608695
sg19
I1
sg20
(F0.0
F7535000.0
tp938
sg22
F1.000000000000007
sg23
I2
sg24
(lp939
g898
ag0
(g542
g2
Ntp940
Rp941
(dp942
g6
g73
sg8
(lp943
sg11
g69
sg13
Nsg14
g72
sg19
I0
sg18
F1.0
sg22
Nsg20
Nsg23
I1
sg24
Nsg495
g496
sbag935
asg495
(lp944
F17.0
aF17.333333333333336
aF17.666666666666668
asbasg495
(lp945
I16
aF17.0
asbag0
(g1
g2
Ntp946
Rp947
(dp948
g6
(lp949
I3
aI2
asg8
(F0.0
(F17.666666666666668
F18.0
F20.0
tp950
tp951
sg11
(lp952
F7830000.0
aF8141250.0
asg13
F1.0
sg14
(lp953
g884
aNasg16
F0.00923315383536153
sg17
I1
sg18
F0.00923315383536153
sg19
I2
sg20
(F0.0
F7830000.0
tp954
sg22
F2.000000000000014
sg23
I2
sg24
(lp955
g0
(g1
g2
Ntp956
Rp957
(dp958
g6
(lp959
I3
asg8
(F0.0
(F17.666666666666668
F18.0
F20.0
tp960
tp961
sg11
(lp962
F7830000.0
aF7933750.0
aF8037500.0
asg13
F1.0
sg14
(lp963
g884
aNag0
(g64
g2
Ntp964
Rp965
(dp966
g68
F18.666666666666668
sg11
g69
sg8
(lp967
sg71
I28
sg13
Nsg14
g72
sg24
Nsg22
Nsg6
g73
sg18
F1.0
sg19
I0
sg20
Nsg74
F20.0
sg23
I0
sg75
g76
sg495
g496
sg497
F18.0
sbasg16
F0.16474184782608695
sg17
I1
sg18
F0.16474184782608695
sg19
I1
sg20
(F0.0
F7830000.0
tp968
sg22
F1.000000000000007
sg23
I2
sg24
(lp969
g884
ag0
(g542
g2
Ntp970
Rp971
(dp972
g6
g73
sg8
(lp973
sg11
g69
sg13
Nsg14
g72
sg19
I0
sg18
F1.0
sg22
Nsg20
Nsg23
I1
sg24
Nsg495
g496
sbag965
asg495
(lp974
F18.0
aF18.333333333333336
aF18.666666666666668
asbag0
(g542
g2
Ntp975
Rp976
(dp977
g6
g73
sg8
(lp978
sg11
g69
sg13
Nsg14
g72
sg19
I0
sg18
F1.0
sg22
Nsg20
Nsg23
I1
sg24
Nsg495
g496
sbasg495
(lp979
F18.0
aF19.000000000000007
asbasg495
(lp980
I16
aF18.0
asbag0
(g1
g2
Ntp981
Rp982
(dp983
g6
(lp984
I3
aI2
aI2
asg8
(F0.0
(F18.666666666666668
F20.0
F32.666666666666664
tp985
tp986
sg11
(lp987
F8425000.0
aF9005000.0
asg13
F1.0
sg14
(lp988
g870
ag0
(g64
g2
Ntp989
Rp990
(dp991
g68
F22.0
sg11
g69
sg8
(lp992
sg71
I32
sg13
Nsg14
g72
sg24
Nsg22
Nsg6
g73
sg18
F1.0
sg19
I0
sg20
Nsg74
F23.0
sg23
I0
sg75
g76
sg495
g496
sg497
F21.333333333333332
sbasg16
F5.208146494114384e-05
sg17
I1
sg18
F5.208146494114384e-05
sg19
I3
sg20
(F0.0
F8425000.0
tp993
sg22
F4.0
sg23
I2
sg24
(lp994
g0
(g1
g2
Ntp995
Rp996
(dp997
g6
(lp998
I3
asg8
(F0.0
(F18.666666666666668
F20.0
F22.0
tp999
tp1000
sg11
(lp1001
F8425000.0
aF8625000.0
aF8807500.0
asg13
F1.0
sg14
(lp1002
g870
ag0
(g64
g2
Ntp1003
Rp1004
(dp1005
g68
F20.666666666666668
sg11
g69
sg8
(lp1006
sg71
I30
sg13
Nsg14
g72
sg24
Nsg22
Nsg6
g73
sg18
F1.0
sg19
I0
sg20
Nsg74
F21.333333333333332
sg23
I0
sg75
g76
sg495
g496
sg497
F20.0
sbag0
(g64
g2
Ntp1007
Rp1008
(dp1009
g68
F21.333333333333332
sg11
g69
sg8
(lp1010
sg71
I31
sg13
Nsg14
g72
sg24
Nsg22
Nsg6
g73
sg18
F1.0
sg19
I0
sg20
Nsg74
F22.0
sg23
I0
sg75
g76
sg495
g496
sg497
F20.666666666666668
sbasg16
F0.012907608695652174
sg17
I1
sg18
F0.012907608695652174
sg19
I1
sg20
(F0.0
F8425000.0
tp1011
sg22
F2.0000000000000036
sg23
I2
sg24
(lp1012
g870
ag1004
ag1008
asg495
(lp1013
F20.0
aF20.666666666666668
aF21.333333333333332
asbag0
(g1
g2
Ntp1014
Rp1015
(dp1016
g6
(lp1017
I3
aI2
asg8
(F0.0
(F21.333333333333332
F22.0
F32.666666666666664
tp1018
tp1019
sg11
(lp1020
F9005000.0
aF9310000.0
asg13
F1.0
sg14
(lp1021
g990
ag0
(g64
g2
Ntp1022
Rp1023
(dp1024
g68
F23.0
sg11
g69
sg8
(lp1025
sg71
I33
sg13
Nsg14
g72
sg24
Nsg22
Nsg6
g73
sg18
F1.0
sg19
I0
sg20
Nsg74
F23.666666666666668
sg23
I0
sg75
g76
sg495
g496
sg497
F22.0
sbasg16
F0.010240406981037333
sg17
I1
sg18
F0.010240406981037333
sg19
I2
sg20
(F0.0
F9005000.0
tp1026
sg22
F2.0
sg23
I2
sg24
(lp1027
g990
ag0
(g1
g2
Ntp1028
Rp1029
(dp1030
g6
(lp1031
I3
asg8
(F0.0
(F22.0
F23.0
F32.666666666666664
tp1032
tp1033
sg11
(lp1034
F9310000.0
aF9415000.0
aF9520000.0
asg13
F1.0
sg14
(lp1035
g1023
aNag0
(g64
g2
Ntp1036
Rp1037
(dp1038
g68
F23.666666666666668
sg11
g69
sg8
(lp1039
sg71
I34
sg13
Nsg14
g72
sg24
Nsg22
Nsg6
g73
sg18
F1.0
sg19
I0
sg20
Nsg74
F32.666666666666664
sg23
I0
sg75
g76
sg495
g496
sg497
F23.0
sbasg16
F0.16474184782608695
sg17
I1
sg18
F0.16474184782608695
sg19
I1
sg20
(F0.0
F9310000.0
tp1040
sg22
F1.000000000000007
sg23
I2
sg24
(lp1041
g1023
ag0
(g542
g2
Ntp1042
Rp1043
(dp1044
g6
g73
sg8
(lp1045
sg11
g69
sg13
Nsg14
g72
sg19
I0
sg18
F1.0
sg22
Nsg20
Nsg23
I1
sg24
Nsg495
g496
sbag1037
asg495
(lp1046
F23.0
aF23.333333333333336
aF23.666666666666668
asbasg495
(lp1047
F22.0
aF23.0
asbasg495
(lp1048
F20.0
aF22.0
asbasg495
(lp1049
I16
aF20.0
asbag0
(g542
g2
Ntp1050
Rp1051
(dp1052
g6
g73
sg8
(lp1053
sg11
g69
sg13
Nsg14
g72
sg19
I0
sg18
F1.0
sg22
Nsg20
Nsg23
I1
sg24
Nsg495
g496
sbasg495
(lp1054
I16
aF24.0
asbasg495
(lp1055
I0
aI16
asbag0
(g1
g2
Ntp1056
Rp1057
(dp1058
g6
(lp1059
I3
aI2
aI2
aI2
aI2
aI2
asg8
(F0.0
(F23.666666666666668
I32
F64.66666666666667
tp1060
tp1061
sg11
(lp1062
F12028750.0
aF16838750.0
asg13
F1.0
sg14
(lp1063
NaNasg16
F1.772700833222607e-30
sg17
I1
sg18
F1.772700833222607e-30
sg19
I6
sg20
(F0.0
F12028750.0
tp1064
sg22
I32
sg23
I2
sg24
(lp1065
g0
(g1
g2
Ntp1066
Rp1067
(dp1068
g6
(lp1069
I3
aI2
aI2
aI2
aI2
asg8
(F0.0
(F23.666666666666668
I32
F48.666666666666664
tp1070
tp1071
sg11
(lp1072
F12028750.0
aF14430000.0
asg13
F1.0
sg14
(lp1073
NaNasg16
F1.3265450023133437e-19
sg17
I1
sg18
F1.3265450023133437e-19
sg19
I5
sg20
(F0.0
F12028750.0
tp1074
sg22
I16
sg23
I2
sg24
(lp1075
g0
(g1
g2
Ntp1076
Rp1077
(dp1078
g6
(lp1079
I3
aI2
aI2
aI2
asg8
(F0.0
(F23.666666666666668
I32
F40.666666666666664
tp1080
tp1081
sg11
(lp1082
F12028750.0
aF13225000.0
asg13
F1.0
sg14
(lp1083
Nag0
(g64
g2
Ntp1084
Rp1085
(dp1086
g68
F36.0
sg11
g69
sg8
(lp1087
sg71
I41
sg13
Nsg14
g72
sg24
Nsg22
Nsg6
g73
sg18
F1.0
sg19
I0
sg20
Nsg74
F36.666666666666664
sg23
I0
sg75
g76
sg495
g496
sg497
F34.666666666666664
sbasg16
F7.577238002774372e-09
sg17
I1
sg18
F7.577238002774372e-09
sg19
I4
sg20
(F0.0
F12028750.0
tp1088
sg22
F8.0
sg23
I2
sg24
(lp1089
g0
(g1
g2
Ntp1090
Rp1091
(dp1092
g6
(lp1093
I3
aI2
aI2
asg8
(F0.0
(F23.666666666666668
I32
F36.0
tp1094
tp1095
sg11
(lp1096
F12028750.0
aF12625000.0
asg13
F1.0
sg14
(lp1097
Nag0
(g64
g2
Ntp1098
Rp1099
(dp1100
g68
F34.0
sg11
g69
sg8
(lp1101
sg71
I39
sg13
Nsg14
g72
sg24
Nsg22
Nsg6
g73
sg18
F1.0
sg19
I0
sg20
Nsg74
F34.666666666666664
sg23
I0
sg75
g76
sg495
g496
sg497
F33.666666666666664
sbasg16
F3.2086072258624124e-05
sg17
I1
sg18
F3.2086072258624124e-05
sg19
I3
sg20
(F0.0
F12028750.0
tp1102
sg22
F4.0
sg23
I2
sg24
(lp1103
g0
(g1
g2
Ntp1104
Rp1105
(dp1106
g6
(lp1107
I3
aI2
asg8
(F0.0
(F23.666666666666668
I32
F34.0
tp1108
tp1109
sg11
(lp1110
F12028750.0
aF12325000.0
asg13
F1.0
sg14
(lp1111
Nag0
(g64
g2
Ntp1112
Rp1113
(dp1114
g68
F33.0
sg11
g69
sg8
(lp1115
sg71
I37
sg13
Nsg14
g72
sg24
Nsg22
Nsg6
g73
sg18
F1.0
sg19
I0
sg20
Nsg74
F33.666666666666664
sg23
I0
sg75
g76
sg495
g496
sg497
F32.666666666666664
sbasg16
F0.008819547471195137
sg17
I1
sg18
F0.008819547471195137
sg19
I2
sg20
(F0.5
F12325000.0
tp1116
sg22
F2.0
sg23
I2
sg24
(lp1117
g0
(g1
g2
Ntp1118
Rp1119
(dp1120
g6
(lp1121
I3
asg8
(F0.0
(F23.666666666666668
I32
F33.0
tp1122
tp1123
sg11
(lp1124
NaNaF12215000.0
asg13
F1.0
sg14
(lp1125
NaNag0
(g64
g2
Ntp1126
Rp1127
(dp1128
g68
F32.666666666666664
sg11
g69
sg8
(lp1129
sg71
I36
sg13
Nsg14
g72
sg24
Nsg22
Nsg6
g73
sg18
F1.0
sg19
I0
sg20
Nsg74
F33.0
sg23
I0
sg75
g76
sg495
g496
sg497
F23.666666666666668
sbasg16
F0.1358695652173913
sg17
I1
sg18
F0.1358695652173913
sg19
I1
sg20
(F0.6666666666666666
F12215000.0
tp1130
sg22
F0.9999999999999858
sg23
I2
sg24
(lp1131
g0
(g542
g2
Ntp1132
Rp1133
(dp1134
g6
g73
sg8
(lp1135
sg11
g69
sg13
Nsg14
g72
sg19
I0
sg18
F1.0
sg22
Nsg20
Nsg23
I1
sg24
Nsg495
g496
sbag0
(g542
g2
Ntp1136
Rp1137
(dp1138
g6
g73
sg8
(lp1139
sg11
g69
sg13
Nsg14
g72
sg19
I0
sg18
F1.0
sg22
Nsg20
Nsg23
I1
sg24
Nsg495
g496
sbag1127
asg495
(lp1140
I32
aF32.33333333333333
aF32.666666666666664
asbag0
(g1
g2
Ntp1141
Rp1142
(dp1143
g6
(lp1144
I3
asg8
(F0.0
(F32.666666666666664
F33.0
F34.0
tp1145
tp1146
sg11
(lp1147
F12325000.0
aF12423750.0
aF12522500.0
asg13
F1.0
sg14
(lp1148
g1113
aNag0
(g64
g2
Ntp1149
Rp1150
(dp1151
g68
F33.666666666666664
sg11
g69
sg8
(lp1152
sg71
I38
sg13
Nsg14
g72
sg24
Nsg22
Nsg6
g73
sg18
F1.0
sg19
I0
sg20
Nsg74
F34.0
sg23
I0
sg75
g76
sg495
g496
sg497
F33.0
sbasg16
F0.16474184782608695
sg17
I1
sg18
F0.16474184782608695
sg19
I1
sg20
(F0.0
F12325000.0
tp1153
sg22
F0.9999999999999858
sg23
I2
sg24
(lp1154
g1113
ag0
(g542
g2
Ntp1155
Rp1156
(dp1157
g6
g73
sg8
(lp1158
sg11
g69
sg13
Nsg14
g72
sg19
I0
sg18
F1.0
sg22
Nsg20
Nsg23
I1
sg24
Nsg495
g496
sbag1150
asg495
(lp1159
F33.0
aF33.33333333333333
aF33.666666666666664
asbasg495
(lp1160
I32
aF33.0
asbag0
(g1
g2
Ntp1161
Rp1162
(dp1163
g6
(lp1164
I3
aI2
asg8
(F0.0
(F33.666666666666664
F34.0
F36.0
tp1165
tp1166
sg11
(lp1167
F12625000.0
aF12958750.0
asg13
F1.0
sg14
(lp1168
g1099
aNasg16
F0.00923315383536153
sg17
I1
sg18
F0.00923315383536153
sg19
I2
sg20
(F0.0
F12625000.0
tp1169
sg22
F1.9999999999999716
sg23
I2
sg24
(lp1170
g0
(g1
g2
Ntp1171
Rp1172
(dp1173
g6
(lp1174
I3
asg8
(F0.0
(F33.666666666666664
F34.0
F36.0
tp1175
tp1176
sg11
(lp1177
F12625000.0
aF12736250.0
aF12847500.0
asg13
F1.0
sg14
(lp1178
g1099
aNag0
(g64
g2
Ntp1179
Rp1180
(dp1181
g68
F34.666666666666664
sg11
g69
sg8
(lp1182
sg71
I40
sg13
Nsg14
g72
sg24
Nsg22
Nsg6
g73
sg18
F1.0
sg19
I0
sg20
Nsg74
F36.0
sg23
I0
sg75
g76
sg495
g496
sg497
F34.0
sbasg16
F0.16474184782608695
sg17
I1
sg18
F0.16474184782608695
sg19
I1
sg20
(F0.0
F12625000.0
tp1183
sg22
F0.9999999999999858
sg23
I2
sg24
(lp1184
g1099
ag0
(g542
g2
Ntp1185
Rp1186
(dp1187
g6
g73
sg8
(lp1188
sg11
g69
sg13
Nsg14
g72
sg19
I0
sg18
F1.0
sg22
Nsg20
Nsg23
I1
sg24
Nsg495
g496
sbag1180
asg495
(lp1189
F34.0
aF34.33333333333333
aF34.666666666666664
asbag0
(g542
g2
Ntp1190
Rp1191
(dp1192
g6
g73
sg8
(lp1193
sg11
g69
sg13
Nsg14
g72
sg19
I0
sg18
F1.0
sg22
Nsg20
Nsg23
I1
sg24
Nsg495
g496
sbasg495
(lp1194
F34.0
aF34.999999999999986
asbasg495
(lp1195
I32
aF34.0
asbag0
(g1
g2
Ntp1196
Rp1197
(dp1198
g6
(lp1199
I3
aI2
aI2
asg8
(F0.0
(F34.666666666666664
F36.0
F40.666666666666664
tp1200
tp1201
sg11
(lp1202
F13225000.0
aF13870000.0
asg13
F1.0
sg14
(lp1203
g1085
aNasg16
F0.0005993412758002639
sg17
I1
sg18
F0.0005993412758002639
sg19
I3
sg20
(F0.0
F13225000.0
tp1204
sg22
F4.0
sg23
I2
sg24
(lp1205
g0
(g1
g2
Ntp1206
Rp1207
(dp1208
g6
(lp1209
I3
aI2
asg8
(F0.0
(F34.666666666666664
F36.0
F40.666666666666664
tp1210
tp1211
sg11
(lp1212
F13225000.0
aF13547500.0
asg13
F1.0
sg14
(lp1213
g1085
ag0
(g64
g2
Ntp1214
Rp1215
(dp1216
g68
F37.0
sg11
g69
sg8
(lp1217
sg71
I43
sg13
Nsg14
g72
sg24
Nsg22
Nsg6
g73
sg18
F1.0
sg19
I0
sg20
Nsg74
F37.666666666666664
sg23
I0
sg75
g76
sg495
g496
sg497
F36.666666666666664
sbasg16
F0.010693701308824103
sg17
I1
sg18
F0.010693701308824103
sg19
I2
sg20
(F0.0
F13225000.0
tp1218
sg22
F2.0
sg23
I2
sg24
(lp1219
g0
(g1
g2
Ntp1220
Rp1221
(dp1222
g6
(lp1223
I3
asg8
(F0.0
(F34.666666666666664
F36.0
F37.0
tp1224
tp1225
sg11
(lp1226
F13225000.0
aF13330000.0
aF13435000.0
asg13
F1.0
sg14
(lp1227
g1085
aNag0
(g64
g2
Ntp1228
Rp1229
(dp1230
g68
F36.666666666666664
sg11
g69
sg8
(lp1231
sg71
I42
sg13
Nsg14
g72
sg24
Nsg22
Nsg6
g73
sg18
F1.0
sg19
I0
sg20
Nsg74
F37.0
sg23
I0
sg75
g76
sg495
g496
sg497
F36.0
sbasg16
F0.16474184782608695
sg17
I1
sg18
F0.16474184782608695
sg19
I1
sg20
(F0.0
F13225000.0
tp1232
sg22
F0.9999999999999858
sg23
I2
sg24
(lp1233
g1085
ag0
(g542
g2
Ntp1234
Rp1235
(dp1236
g6
g73
sg8
(lp1237
sg11
g69
sg13
Nsg14
g72
sg19
I0
sg18
F1.0
sg22
Nsg20
Nsg23
I1
sg24
Nsg495
g496
sbag1229
asg495
(lp1238
F36.0
aF36.33333333333333
aF36.666666666666664
asbag0
(g1
g2
Ntp1239
Rp1240
(dp1241
g6
(lp1242
I3
asg8
(F0.0
(F36.666666666666664
F37.0
F40.666666666666664
tp1243
tp1244
sg11
(lp1245
F13547500.0
aF13641250.0
aF13735000.0
asg13
F1.0
sg14
(lp1246
g1215
aNag0
(g64
g2
Ntp1247
Rp1248
(dp1249
g68
F37.666666666666664
sg11
g69
sg8
(lp1250
sg71
I44
sg13
Nsg14
g72
sg24
Nsg22
Nsg6
g73
sg18
F1.0
sg19
I0
sg20
Nsg74
F40.666666666666664
sg23
I0
sg75
g76
sg495
g496
sg497
F37.0
sbasg16
F0.16474184782608695
sg17
I1
sg18
F0.16474184782608695
sg19
I1
sg20
(F0.0
F13547500.0
tp1251
sg22
F0.9999999999999858
sg23
I2
sg24
(lp1252
g1215
ag0
(g542
g2
Ntp1253
Rp1254
(dp1255
g6
g73
sg8
(lp1256
sg11
g69
sg13
Nsg14
g72
sg19
I0
sg18
F1.0
sg22
Nsg20
Nsg23
I1
sg24
Nsg495
g496
sbag1248
asg495
(lp1257
F37.0
aF37.33333333333333
aF37.666666666666664
asbasg495
(lp1258
F36.0
aF37.0
asbag0
(g542
g2
Ntp1259
Rp1260
(dp1261
g6
g73
sg8
(lp1262
sg11
g69
sg13
Nsg14
g72
sg19
I0
sg18
F1.0
sg22
Nsg20
Nsg23
I1
sg24
Nsg495
g496
sbasg495
(lp1263
F36.0
aF38.0
asbasg495
(lp1264
I32
aF36.0
asbag0
(g1
g2
Ntp1265
Rp1266
(dp1267
g6
(lp1268
I3
aI2
aI2
aI2
asg8
(F0.0
(F37.666666666666664
I40
F48.666666666666664
tp1269
tp1270
sg11
(lp1271
F14430000.0
aF15612500.0
asg13
F1.0
sg14
(lp1272
Nag0
(g64
g2
Ntp1273
Rp1274
(dp1275
g68
F44.0
sg11
g69
sg8
(lp1276
sg71
I52
sg13
Nsg14
g72
sg24
Nsg22
Nsg6
g73
sg18
F1.0
sg19
I0
sg20
Nsg74
F44.666666666666664
sg23
I0
sg75
g76
sg495
g496
sg497
F43.666666666666664
sbasg16
F4.4431489795837785e-11
sg17
I1
sg18
F4.4431489795837785e-11
sg19
I4
sg20
(F0.0
F14430000.0
tp1277
sg22
F8.0
sg23
I2
sg24
(lp1278
g0
(g1
g2
Ntp1279
Rp1280
(dp1281
g6
(lp1282
I3
aI2
aI2
asg8
(F0.0
(F37.666666666666664
I40
F44.0
tp1283
tp1284
sg11
(lp1285
F14430000.0
aF15015000.0
asg13
F1.0
sg14
(lp1286
Nag0
(g64
g2
Ntp1287
Rp1288
(dp1289
g68
F42.0
sg11
g69
sg8
(lp1290
sg71
I49
sg13
Nsg14
g72
sg24
Nsg22
Nsg6
g73
sg18
F1.0
sg19
I0
sg20
Nsg74
F42.666666666666664
sg23
I0
sg75
g76
sg495
g496
sg497
F41.666666666666664
sbasg16
F3.064875149868575e-05
sg17
I1
sg18
F3.064875149868575e-05
sg19
I3
sg20
(F0.0
F14430000.0
tp1291
sg22
F4.0
sg23
I2
sg24
(lp1292
g0
(g1
g2
Ntp1293
Rp1294
(dp1295
g6
(lp1296
I3
aI2
asg8
(F0.0
(F37.666666666666664
I40
F42.0
tp1297
tp1298
sg11
(lp1299
F14430000.0
aF14730000.0
asg13
F1.0
sg14
(lp1300
Nag0
(g64
g2
Ntp1301
Rp1302
(dp1303
g68
F41.0
sg11
g69
sg8
(lp1304
sg71
I47
sg13
Nsg14
g72
sg24
Nsg22
Nsg6
g73
sg18
F1.0
sg19
I0
sg20
Nsg74
F41.666666666666664
sg23
I0
sg75
g76
sg495
g496
sg497
F40.666666666666664
sbasg16
F0.008819547471195137
sg17
I1
sg18
F0.008819547471195137
sg19
I2
sg20
(F0.5
F14730000.0
tp1305
sg22
F2.0
sg23
I2
sg24
(lp1306
g0
(g1
g2
Ntp1307
Rp1308
(dp1309
g6
(lp1310
I3
asg8
(F0.0
(F37.666666666666664
I40
F41.0
tp1311
tp1312
sg11
(lp1313
NaNaF14620000.0
asg13
F1.0
sg14
(lp1314
NaNag0
(g64
g2
Ntp1315
Rp1316
(dp1317
g68
F40.666666666666664
sg11
g69
sg8
(lp1318
sg71
I46
sg13
Nsg14
g72
sg24
Nsg22
Nsg6
g73
sg18
F1.0
sg19
I0
sg20
Nsg74
F41.0
sg23
I0
sg75
g76
sg495
g496
sg497
F37.666666666666664
sbasg16
F0.1358695652173913
sg17
I1
sg18
F0.1358695652173913
sg19
I1
sg20
(F0.6666666666666666
F14620000.0
tp1319
sg22
F0.9999999999999858
sg23
I2
sg24
(lp1320
g0
(g542
g2
Ntp1321
Rp1322
(dp1323
g6
g73
sg8
(lp1324
sg11
g69
sg13
Nsg14
g72
sg19
I0
sg18
F1.0
sg22
Nsg20
Nsg23
I1
sg24
Nsg495
g496
sbag0
(g542
g2
Ntp1325
Rp1326
(dp1327
g6
g73
sg8
(lp1328
sg11
g69
sg13
Nsg14
g72
sg19
I0
sg18
F1.0
sg22
Nsg20
Nsg23
I1
sg24
Nsg495
g496
sbag1316
asg495
(lp1329
I40
aF40.33333333333333
aF40.666666666666664
asbag0
(g1
g2
Ntp1330
Rp1331
(dp1332
g6
(lp1333
I3
asg8
(F0.0
(F40.666666666666664
F41.0
F42.0
tp1334
tp1335
sg11
(lp1336
F14730000.0
aF14830000.0
aF14930000.0
asg13
F1.0
sg14
(lp1337
g1302
aNag0
(g64
g2
Ntp1338
Rp1339
(dp1340
g68
F41.666666666666664
sg11
g69
sg8
(lp1341
sg71
I48
sg13
Nsg14
g72
sg24
Nsg22
Nsg6
g73
sg18
F1.0
sg19
I0
sg20
Nsg74
F42.0
sg23
I0
sg75
g76
sg495
g496
sg497
F41.0
sbasg16
F0.16474184782608695
sg17
I1
sg18
F0.16474184782608695
sg19
I1
sg20
(F0.0
F14730000.0
tp1342
sg22
F0.9999999999999858
sg23
I2
sg24
(lp1343
g1302
ag0
(g542
g2
Ntp1344
Rp1345
(dp1346
g6
g73
sg8
(lp1347
sg11
g69
sg13
Nsg14
g72
sg19
I0
sg18
F1.0
sg22
Nsg20
Nsg23
I1
sg24
Nsg495
g496
sbag1339
asg495
(lp1348
F41.0
aF41.33333333333333
aF41.666666666666664
asbasg495
(lp1349
I40
aF41.0
asbag0
(g1
g2
Ntp1350
Rp1351
(dp1352
g6
(lp1353
I3
aI2
asg8
(F0.0
(F41.666666666666664
F42.0
F44.0
tp1354
tp1355
sg11
(lp1356
F15015000.0
aF15352500.0
asg13
F1.0
sg14
(lp1357
g1288
aNasg16
F0.008819547471195137
sg17
I1
sg18
F0.008819547471195137
sg19
I2
sg20
(F0.0
F15015000.0
tp1358
sg22
F2.0
sg23
I2
sg24
(lp1359
g0
(g1
g2
Ntp1360
Rp1361
(dp1362
g6
(lp1363
I3
asg8
(F0.0
(F41.666666666666664
F42.0
F43.666666666666664
tp1364
tp1365
sg11
(lp1366
F15015000.0
aF15127500.0
aF15240000.0
asg13
F1.0
sg14
(lp1367
g1288
aNag0
(g64
g2
Ntp1368
Rp1369
(dp1370
g68
F42.666666666666664
sg11
g69
sg8
(lp1371
sg71
I50
sg13
Nsg14
g72
sg24
Nsg22
Nsg6
g73
sg18
F1.0
sg19
I0
sg20
Nsg74
F43.666666666666664
sg23
I0
sg75
g76
sg495
g496
sg497
F42.0
sbasg16
F0.16474184782608695
sg17
I1
sg18
F0.16474184782608695
sg19
I1
sg20
(F0.0
F15015000.0
tp1372
sg22
F0.9999999999999858
sg23
I2
sg24
(lp1373
g1288
ag0
(g542
g2
Ntp1374
Rp1375
(dp1376
g6
g73
sg8
(lp1377
sg11
g69
sg13
Nsg14
g72
sg19
I0
sg18
F1.0
sg22
Nsg20
Nsg23
I1
sg24
Nsg495
g496
sbag1369
asg495
(lp1378
F42.0
aF42.33333333333333
aF42.666666666666664
asbag0
(g1
g2
Ntp1379
Rp1380
(dp1381
g6
(lp1382
I3
asg8
(F0.0
(F42.666666666666664
I43
F44.0
tp1383
tp1384
sg11
(lp1385
NaNaF15517500.0
asg13
F1.0
sg14
(lp1386
NaNag0
(g64
g2
Ntp1387
Rp1388
(dp1389
g68
F43.666666666666664
sg11
g69
sg8
(lp1390
sg71
I51
sg13
Nsg14
g72
sg24
Nsg22
Nsg6
g73
sg18
F1.0
sg19
I0
sg20
Nsg74
F44.0
sg23
I0
sg75
g76
sg495
g496
sg497
F42.666666666666664
sbasg16
F0.1358695652173913
sg17
I1
sg18
F0.1358695652173913
sg19
I1
sg20
(F0.6666666666666666
F15517500.0
tp1391
sg22
F0.9999999999999858
sg23
I2
sg24
(lp1392
g0
(g542
g2
Ntp1393
Rp1394
(dp1395
g6
g73
sg8
(lp1396
sg11
g69
sg13
Nsg14
g72
sg19
I0
sg18
F1.0
sg22
Nsg20
Nsg23
I1
sg24
Nsg495
g496
sbag0
(g542
g2
Ntp1397
Rp1398
(dp1399
g6
g73
sg8
(lp1400
sg11
g69
sg13
Nsg14
g72
sg19
I0
sg18
F1.0
sg22
Nsg20
Nsg23
I1
sg24
Nsg495
g496
sbag1388
asg495
(lp1401
I43
aF43.33333333333333
aF43.666666666666664
asbasg495
(lp1402
F42.0
aI43
asbasg495
(lp1403
I40
aF42.0
asbag0
(g1
g2
Ntp1404
Rp1405
(dp1406
g6
(lp1407
I3
aI2
aI2
asg8
(F0.0
(F43.666666666666664
F44.0
F48.666666666666664
tp1408
tp1409
sg11
(lp1410
F15612500.0
aF16237500.0
asg13
F1.0
sg14
(lp1411
g1274
ag0
(g64
g2
Ntp1412
Rp1413
(dp1414
g68
F46.0
sg11
g69
sg8
(lp1415
sg71
I55
sg13
Nsg14
g72
sg24
Nsg22
Nsg6
g73
sg18
F1.0
sg19
I0
sg20
Nsg74
F46.333333333333336
sg23
I0
sg75
g76
sg495
g496
sg497
F45.333333333333336
sbasg16
F3.6792381858033e-06
sg17
I1
sg18
F3.6792381858033e-06
sg19
I3
sg20
(F0.0
F15612500.0
tp1416
sg22
F4.0
sg23
I2
sg24
(lp1417
g0
(g1
g2
Ntp1418
Rp1419
(dp1420
g6
(lp1421
I3
asg8
(F0.0
(F43.666666666666664
F44.0
F46.0
tp1422
tp1423
sg11
(lp1424
F15612500.0
aF15822500.0
aF16015000.0
asg13
F1.0
sg14
(lp1425
g1274
ag0
(g64
g2
Ntp1426
Rp1427
(dp1428
g68
F44.666666666666664
sg11
g69
sg8
(lp1429
sg71
I53
sg13
Nsg14
g72
sg24
Nsg22
Nsg6
g73
sg18
F1.0
sg19
I0
sg20
Nsg74
F45.333333333333336
sg23
I0
sg75
g76
sg495
g496
sg497
F44.0
sbag0
(g64
g2
Ntp1430
Rp1431
(dp1432
g68
F45.333333333333336
sg11
g69
sg8
(lp1433
sg71
I54
sg13
Nsg14
g72
sg24
Nsg22
Nsg6
g73
sg18
F1.0
sg19
I0
sg20
Nsg74
F46.0
sg23
I0
sg75
g76
sg495
g496
sg497
F44.666666666666664
sbasg16
F0.012907608695652174
sg17
I1
sg18
F0.012907608695652174
sg19
I1
sg20
(F0.0
F15612500.0
tp1434
sg22
F1.999999999999993
sg23
I2
sg24
(lp1435
g1274
ag1427
ag1431
asg495
(lp1436
F44.0
aF44.666666666666664
aF45.333333333333336
asbag0
(g1
g2
Ntp1437
Rp1438
(dp1439
g6
(lp1440
I3
aI2
asg8
(F0.0
(F45.333333333333336
F46.0
F48.666666666666664
tp1441
tp1442
sg11
(lp1443
F16237500.0
aF16530000.0
asg13
F1.0
sg14
(lp1444
g1413
aNasg16
F0.000723422362358223
sg17
I1
sg18
F0.000723422362358223
sg19
I2
sg20
(F0.0
F16237500.0
tp1445
sg22
F2.000000000000014
sg23
I2
sg24
(lp1446
g0
(g1
g2
Ntp1447
Rp1448
(dp1449
g6
(lp1450
I3
asg8
(F0.0
(F45.333333333333336
F46.0
F48.666666666666664
tp1451
tp1452
sg11
(lp1453
F16237500.0
aF16335000.0
aF16432500.0
asg13
F1.0
sg14
(lp1454
g1413
ag0
(g64
g2
Ntp1455
Rp1456
(dp1457
g68
F46.333333333333336
sg11
g69
sg8
(lp1458
sg71
I56
sg13
Nsg14
g72
sg24
Nsg22
Nsg6
g73
sg18
F1.0
sg19
I0
sg20
Nsg74
F46.666666666666664
sg23
I0
sg75
g76
sg495
g496
sg497
F46.0
sbag0
(g64
g2
Ntp1459
Rp1460
(dp1461
g68
F46.666666666666664
sg11
g69
sg8
(lp1462
sg71
I57
sg13
Nsg14
g72
sg24
Nsg22
Nsg6
g73
sg18
F1.0
sg19
I0
sg20
Nsg74
F48.666666666666664
sg23
I0
sg75
g76
sg495
g496
sg497
F46.333333333333336
sbasg16
F0.012907608695652174
sg17
I1
sg18
F0.012907608695652174
sg19
I1
sg20
(F0.0
F16237500.0
tp1463
sg22
F1.000000000000007
sg23
I2
sg24
(lp1464
g1413
ag1456
ag1460
asg495
(lp1465
F46.0
aF46.333333333333336
aF46.666666666666664
asbag0
(g542
g2
Ntp1466
Rp1467
(dp1468
g6
g73
sg8
(lp1469
sg11
g69
sg13
Nsg14
g72
sg19
I0
sg18
F1.0
sg22
Nsg20
Nsg23
I1
sg24
Nsg495
g496
sbasg495
(lp1470
F46.0
aF47.00000000000001
asbasg495
(lp1471
F44.0
aF46.0
asbasg495
(lp1472
I40
aF44.0
asbasg495
(lp1473
I32
aI40
asbag0
(g1
g2
Ntp1474
Rp1475
(dp1476
g6
(lp1477
I3
aI2
aI2
aI2
aI2
asg8
(F0.0
(F46.666666666666664
I48
F64.66666666666667
tp1478
tp1479
sg11
(lp1480
F16838750.0
aF19201250.0
asg13
F1.0
sg14
(lp1481
NaNasg16
F3.39151137100013e-11
sg17
I1
sg18
F3.39151137100013e-11
sg19
I5
sg20
(F0.0
F16838750.0
tp1482
sg22
F16.0
sg23
I2
sg24
(lp1483
g0
(g1
g2
Ntp1484
Rp1485
(dp1486
g6
(lp1487
I3
aI2
aI2
aI2
asg8
(F0.0
(F46.666666666666664
I48
F64.66666666666667
tp1488
tp1489
sg11
(lp1490
F16838750.0
aF18020000.0
asg13
F1.0
sg14
(lp1491
Nag0
(g64
g2
Ntp1492
Rp1493
(dp1494
g68
F52.0
sg11
g69
sg8
(lp1495
sg71
I64
sg13
Nsg14
g72
sg24
Nsg22
Nsg6
g73
sg18
F1.0
sg19
I0
sg20
Nsg74
F52.666666666666664
sg23
I0
sg75
g76
sg495
g496
sg497
F50.666666666666664
sbasg16
F6.051278470439021e-10
sg17
I1
sg18
F6.051278470439021e-10
sg19
I4
sg20
(F0.0
F16838750.0
tp1496
sg22
F8.0
sg23
I2
sg24
(lp1497
g0
(g1
g2
Ntp1498
Rp1499
(dp1500
g6
(lp1501
I3
aI2
aI2
asg8
(F0.0
(F46.666666666666664
I48
F52.0
tp1502
tp1503
sg11
(lp1504
F16838750.0
aF17420000.0
asg13
F1.0
sg14
(lp1505
Nag0
(g64
g2
Ntp1506
Rp1507
(dp1508
g68
F50.0
sg11
g69
sg8
(lp1509
sg71
I62
sg13
Nsg14
g72
sg24
Nsg22
Nsg6
g73
sg18
F1.0
sg19
I0
sg20
Nsg74
F50.666666666666664
sg23
I0
sg75
g76
sg495
g496
sg497
F49.666666666666664
sbasg16
F3.2086072258624124e-05
sg17
I1
sg18
F3.2086072258624124e-05
sg19
I3
sg20
(F0.0
F16838750.0
tp1510
sg22
F4.0
sg23
I2
sg24
(lp1511
g0
(g1
g2
Ntp1512
Rp1513
(dp1514
g6
(lp1515
I3
aI2
asg8
(F0.0
(F46.666666666666664
I48
F50.0
tp1516
tp1517
sg11
(lp1518
F16838750.0
aF17120000.0
asg13
F1.0
sg14
(lp1519
Nag0
(g64
g2
Ntp1520
Rp1521
(dp1522
g68
F49.0
sg11
g69
sg8
(lp1523
sg71
I60
sg13
Nsg14
g72
sg24
Nsg22
Nsg6
g73
sg18
F1.0
sg19
I0
sg20
Nsg74
F49.666666666666664
sg23
I0
sg75
g76
sg495
g496
sg497
F48.666666666666664
sbasg16
F0.008819547471195137
sg17
I1
sg18
F0.008819547471195137
sg19
I2
sg20
(F0.5
F17120000.0
tp1524
sg22
F2.0
sg23
I2
sg24
(lp1525
g0
(g1
g2
Ntp1526
Rp1527
(dp1528
g6
(lp1529
I3
asg8
(F0.0
(F46.666666666666664
I48
F49.0
tp1530
tp1531
sg11
(lp1532
NaNaF17022500.0
asg13
F1.0
sg14
(lp1533
NaNag0
(g64
g2
Ntp1534
Rp1535
(dp1536
g68
F48.666666666666664
sg11
g69
sg8
(lp1537
sg71
I59
sg13
Nsg14
g72
sg24
Nsg22
Nsg6
g73
sg18
F1.0
sg19
I0
sg20
Nsg74
F49.0
sg23
I0
sg75
g76
sg495
g496
sg497
F46.666666666666664
sbasg16
F0.1358695652173913
sg17
I1
sg18
F0.1358695652173913
sg19
I1
sg20
(F0.6666666666666666
F17022500.0
tp1538
sg22
F0.9999999999999858
sg23
I2
sg24
(lp1539
g0
(g542
g2
Ntp1540
Rp1541
(dp1542
g6
g73
sg8
(lp1543
sg11
g69
sg13
Nsg14
g72
sg19
I0
sg18
F1.0
sg22
Nsg20
Nsg23
I1
sg24
Nsg495
g496
sbag0
(g542
g2
Ntp1544
Rp1545
(dp1546
g6
g73
sg8
(lp1547
sg11
g69
sg13
Nsg14
g72
sg19
I0
sg18
F1.0
sg22
Nsg20
Nsg23
I1
sg24
Nsg495
g496
sbag1535
asg495
(lp1548
I48
aF48.33333333333333
aF48.666666666666664
asbag0
(g1
g2
Ntp1549
Rp1550
(dp1551
g6
(lp1552
I3
asg8
(F0.0
(F48.666666666666664
F49.0
F50.0
tp1553
tp1554
sg11
(lp1555
F17120000.0
aF17213750.0
aF17307500.0
asg13
F1.0
sg14
(lp1556
g1521
aNag0
(g64
g2
Ntp1557
Rp1558
(dp1559
g68
F49.666666666666664
sg11
g69
sg8
(lp1560
sg71
I61
sg13
Nsg14
g72
sg24
Nsg22
Nsg6
g73
sg18
F1.0
sg19
I0
sg20
Nsg74
F50.0
sg23
I0
sg75
g76
sg495
g496
sg497
F49.0
sbasg16
F0.16474184782608695
sg17
I1
sg18
F0.16474184782608695
sg19
I1
sg20
(F0.0
F17120000.0
tp1561
sg22
F0.9999999999999858
sg23
I2
sg24
(lp1562
g1521
ag0
(g542
g2
Ntp1563
Rp1564
(dp1565
g6
g73
sg8
(lp1566
sg11
g69
sg13
Nsg14
g72
sg19
I0
sg18
F1.0
sg22
Nsg20
Nsg23
I1
sg24
Nsg495
g496
sbag1558
asg495
(lp1567
F49.0
aF49.33333333333333
aF49.666666666666664
asbasg495
(lp1568
I48
aF49.0
asbag0
(g1
g2
Ntp1569
Rp1570
(dp1571
g6
(lp1572
I3
aI2
asg8
(F0.0
(F49.666666666666664
F50.0
F52.0
tp1573
tp1574
sg11
(lp1575
F17420000.0
aF17735000.0
asg13
F1.0
sg14
(lp1576
g1507
aNasg16
F0.00923315383536153
sg17
I1
sg18
F0.00923315383536153
sg19
I2
sg20
(F0.0
F17420000.0
tp1577
sg22
F1.9999999999999716
sg23
I2
sg24
(lp1578
g0
(g1
g2
Ntp1579
Rp1580
(dp1581
g6
(lp1582
I3
asg8
(F0.0
(F49.666666666666664
F50.0
F52.0
tp1583
tp1584
sg11
(lp1585
F17420000.0
aF17525000.0
aF17630000.0
asg13
F1.0
sg14
(lp1586
g1507
aNag0
(g64
g2
Ntp1587
Rp1588
(dp1589
g68
F50.666666666666664
sg11
g69
sg8
(lp1590
sg71
I63
sg13
Nsg14
g72
sg24
Nsg22
Nsg6
g73
sg18
F1.0
sg19
I0
sg20
Nsg74
F52.0
sg23
I0
sg75
g76
sg495
g496
sg497
F50.0
sbasg16
F0.16474184782608695
sg17
I1
sg18
F0.16474184782608695
sg19
I1
sg20
(F0.0
F17420000.0
tp1591
sg22
F0.9999999999999858
sg23
I2
sg24
(lp1592
g1507
ag0
(g542
g2
Ntp1593
Rp1594
(dp1595
g6
g73
sg8
(lp1596
sg11
g69
sg13
Nsg14
g72
sg19
I0
sg18
F1.0
sg22
Nsg20
Nsg23
I1
sg24
Nsg495
g496
sbag1588
asg495
(lp1597
F50.0
aF50.33333333333333
aF50.666666666666664
asbag0
(g542
g2
Ntp1598
Rp1599
(dp1600
g6
g73
sg8
(lp1601
sg11
g69
sg13
Nsg14
g72
sg19
I0
sg18
F1.0
sg22
Nsg20
Nsg23
I1
sg24
Nsg495
g496
sbasg495
(lp1602
F50.0
aF50.999999999999986
asbasg495
(lp1603
I48
aF50.0
asbag0
(g1
g2
Ntp1604
Rp1605
(dp1606
g6
(lp1607
I3
aI2
aI2
asg8
(F0.0
(F50.666666666666664
F52.0
F64.66666666666667
tp1608
tp1609
sg11
(lp1610
F18020000.0
aF18568750.0
asg13
F1.0
sg14
(lp1611
g1493
aNasg16
F4.786415521549755e-05
sg17
I1
sg18
F4.786415521549755e-05
sg19
I3
sg20
(F0.0
F18020000.0
tp1612
sg22
F4.000000000000028
sg23
I2
sg24
(lp1613
g0
(g1
g2
Ntp1614
Rp1615
(dp1616
g6
(lp1617
I3
aI2
asg8
(F0.0
(F50.666666666666664
F52.0
F55.0
tp1618
tp1619
sg11
(lp1620
F18020000.0
aF18312500.0
asg13
F1.0
sg14
(lp1621
g1493
ag0
(g64
g2
Ntp1622
Rp1623
(dp1624
g68
F53.0
sg11
g69
sg8
(lp1625
sg71
I66
sg13
Nsg14
g72
sg24
Nsg22
Nsg6
g73
sg18
F1.0
sg19
I0
sg20
Nsg74
F53.666666666666664
sg23
I0
sg75
g76
sg495
g496
sg497
F52.666666666666664
sbasg16
F0.010693701308824103
sg17
I1
sg18
F0.010693701308824103
sg19
I2
sg20
(F0.0
F18020000.0
tp1626
sg22
F2.0
sg23
I2
sg24
(lp1627
g0
(g1
g2
Ntp1628
Rp1629
(dp1630
g6
(lp1631
I3
asg8
(F0.0
(F50.666666666666664
F52.0
F53.0
tp1632
tp1633
sg11
(lp1634
F18020000.0
aF18126250.0
aF18232500.0
asg13
F1.0
sg14
(lp1635
g1493
aNag0
(g64
g2
Ntp1636
Rp1637
(dp1638
g68
F52.666666666666664
sg11
g69
sg8
(lp1639
sg71
I65
sg13
Nsg14
g72
sg24
Nsg22
Nsg6
g73
sg18
F1.0
sg19
I0
sg20
Nsg74
F53.0
sg23
I0
sg75
g76
sg495
g496
sg497
F52.0
sbasg16
F0.16474184782608695
sg17
I1
sg18
F0.16474184782608695
sg19
I1
sg20
(F0.0
F18020000.0
tp1640
sg22
F0.9999999999999858
sg23
I2
sg24
(lp1641
g1493
ag0
(g542
g2
Ntp1642
Rp1643
(dp1644
g6
g73
sg8
(lp1645
sg11
g69
sg13
Nsg14
g72
sg19
I0
sg18
F1.0
sg22
Nsg20
Nsg23
I1
sg24
Nsg495
g496
sbag1637
asg495
(lp1646
F52.0
aF52.33333333333333
aF52.666666666666664
asbag0
(g1
g2
Ntp1647
Rp1648
(dp1649
g6
(lp1650
I3
asg8
(F0.0
(F52.666666666666664
F53.0
F55.0
tp1651
tp1652
sg11
(lp1653
F18312500.0
aF18420000.0
aF18527500.0
asg13
F1.0
sg14
(lp1654
g1623
aNag0
(g64
g2
Ntp1655
Rp1656
(dp1657
g68
F53.666666666666664
sg11
g69
sg8
(lp1658
sg71
I67
sg13
Nsg14
g72
sg24
Nsg22
Nsg6
g73
sg18
F1.0
sg19
I0
sg20
Nsg74
F55.0
sg23
I0
sg75
g76
sg495
g496
sg497
F53.0
sbasg16
F0.16474184782608695
sg17
I1
sg18
F0.16474184782608695
sg19
I1
sg20
(F0.0
F18312500.0
tp1659
sg22
F0.9999999999999858
sg23
I2
sg24
(lp1660
g1623
ag0
(g542
g2
Ntp1661
Rp1662
(dp1663
g6
g73
sg8
(lp1664
sg11
g69
sg13
Nsg14
g72
sg19
I0
sg18
F1.0
sg22
Nsg20
Nsg23
I1
sg24
Nsg495
g496
sbag1656
asg495
(lp1665
F53.0
aF53.33333333333333
aF53.666666666666664
asbasg495
(lp1666
F52.0
aF53.0
asbag0
(g1
g2
Ntp1667
Rp1668
(dp1669
g6
(lp1670
I3
aI2
asg8
(F0.5
(F53.666666666666664
F55.0
F64.66666666666667
tp1671
tp1672
sg11
(lp1673
F18568750.0
aF18910000.0
asg13
F1.0
sg14
(lp1674
Nag0
(g64
g2
Ntp1675
Rp1676
(dp1677
g68
F55.0
sg11
g69
sg8
(lp1678
sg71
I68
sg13
Nsg14
g72
sg24
Nsg22
Nsg6
g73
sg18
F1.0
sg19
I0
sg20
Nsg74
F55.666666666666664
sg23
I0
sg75
g76
sg495
g496
sg497
F53.666666666666664
sbasg16
F0.011359577142899337
sg17
I1
sg18
F0.011359577142899337
sg19
I2
sg20
(F0.5
F18910000.0
tp1679
sg22
F1.9999999999999716
sg23
I2
sg24
(lp1680
g0
(g542
g2
Ntp1681
Rp1682
(dp1683
g6
g73
sg8
(lp1684
sg11
g69
sg13
Nsg14
g72
sg19
I0
sg18
F1.0
sg22
Nsg20
Nsg23
I1
sg24
Nsg495
g496
sbag0
(g1
g2
Ntp1685
Rp1686
(dp1687
g6
(lp1688
I3
asg8
(F0.0
(F53.666666666666664
F55.0
F64.66666666666667
tp1689
tp1690
sg11
(lp1691
F18910000.0
aF19023750.0
aF19137500.0
asg13
F1.0
sg14
(lp1692
g1676
aNag0
(g64
g2
Ntp1693
Rp1694
(dp1695
g68
F55.666666666666664
sg11
g69
sg8
(lp1696
sg71
I69
sg13
Nsg14
g72
sg24
Nsg22
Nsg6
g73
sg18
F1.0
sg19
I0
sg20
Nsg74
F64.66666666666667
sg23
I0
sg75
g76
sg495
g496
sg497
F55.0
sbasg16
F0.16474184782608695
sg17
I1
sg18
F0.16474184782608695
sg19
I1
sg20
(F0.0
F18910000.0
tp1697
sg22
F0.9999999999999858
sg23
I2
sg24
(lp1698
g1676
ag0
(g542
g2
Ntp1699
Rp1700
(dp1701
g6
g73
sg8
(lp1702
sg11
g69
sg13
Nsg14
g72
sg19
I0
sg18
F1.0
sg22
Nsg20
Nsg23
I1
sg24
Nsg495
g496
sbag1694
asg495
(lp1703
F55.0
aF55.33333333333333
aF55.666666666666664
asbasg495
(lp1704
F54.000000000000014
aF55.0
asbasg495
(lp1705
F52.0
aF54.000000000000014
asbasg495
(lp1706
I48
aF52.0
asbag0
(g542
g2
Ntp1707
Rp1708
(dp1709
g6
g73
sg8
(lp1710
sg11
g69
sg13
Nsg14
g72
sg19
I0
sg18
F1.0
sg22
Nsg20
Nsg23
I1
sg24
Nsg495
g496
sbasg495
(lp1711
I48
aF56.0
asbasg495
(lp1712
I32
aI48
asbasg495
(lp1713
I0
aI32
asbag0
(g1
g2
Ntp1714
Rp1715
(dp1716
g6
(lp1717
I3
aI2
aI2
aI2
aI2
aI2
aI2
asg8
(F0.0
(F55.666666666666664
I64
F260.0
tp1718
tp1719
sg11
(lp1720
F21655000.0
aF31193750.0
asg13
F1.0
sg14
(lp1721
NaNasg16
F2.8179565732466298e-64
sg17
I1
sg18
F2.8179565732466298e-64
sg19
I7
sg20
(F0.0
F21655000.0
tp1722
sg22
I64
sg23
I2
sg24
(lp1723
g0
(g1
g2
Ntp1724
Rp1725
(dp1726
g6
(lp1727
I3
aI2
aI2
aI2
aI2
aI2
asg8
(F0.0
(F55.666666666666664
I64
F96.66666666666667
tp1728
tp1729
sg11
(lp1730
F21655000.0
aF26450000.0
asg13
F1.0
sg14
(lp1731
NaNasg16
F4.034397291993163e-34
sg17
I1
sg18
F4.034397291993163e-34
sg19
I6
sg20
(F0.0
F21655000.0
tp1732
sg22
I32
sg23
I2
sg24
(lp1733
g0
(g1
g2
Ntp1734
Rp1735
(dp1736
g6
(lp1737
I3
aI2
aI2
aI2
aI2
asg8
(F0.0
(F55.666666666666664
I64
F80.66666666666667
tp1738
tp1739
sg11
(lp1740
F21655000.0
aF24045833.333333332
asg13
F1.0
sg14
(lp1741
NaNasg16
F2.9998517335141133e-20
sg17
I1
sg18
F2.9998517335141133e-20
sg19
I5
sg20
(F0.0
F21655000.0
tp1742
sg22
I16
sg23
I2
sg24
(lp1743
g0
(g1
g2
Ntp1744
Rp1745
(dp1746
g6
(lp1747
I3
aI2
aI2
aI2
asg8
(F0.0
(F55.666666666666664
I64
F72.66666666666667
tp1748
tp1749
sg11
(lp1750
F21655000.0
aF22843333.333333336
asg13
F1.0
sg14
(lp1751
NaNasg16
F2.7592420722604915e-10
sg17
I1
sg18
F2.7592420722604915e-10
sg19
I4
sg20
(F0.0
F21655000.0
tp1752
sg22
I8
sg23
I2
sg24
(lp1753
g0
(g1
g2
Ntp1754
Rp1755
(dp1756
g6
(lp1757
I3
aI2
aI2
asg8
(F0.0
(F55.666666666666664
I64
F68.66666666666667
tp1758
tp1759
sg11
(lp1760
F21655000.0
aF22230000.0
asg13
F1.0
sg14
(lp1761
Nag0
(g64
g2
Ntp1762
Rp1763
(dp1764
g68
F66.0
sg11
g69
sg8
(lp1765
sg71
I73
sg13
Nsg14
g72
sg24
Nsg22
Nsg6
g73
sg18
F1.0
sg19
I0
sg20
Nsg74
F66.66666666666667
sg23
I0
sg75
g76
sg495
g496
sg497
F65.66666666666667
sbasg16
F2.646274000711268e-05
sg17
I1
sg18
F2.646274000711268e-05
sg19
I3
sg20
(F0.0
F21655000.0
tp1766
sg22
F4.0
sg23
I2
sg24
(lp1767
g0
(g1
g2
Ntp1768
Rp1769
(dp1770
g6
(lp1771
I3
aI2
asg8
(F0.0
(F55.666666666666664
I64
F66.0
tp1772
tp1773
sg11
(lp1774
F21655000.0
aF21940000.0
asg13
F1.0
sg14
(lp1775
NaNasg16
F0.0072738535844908345
sg17
I1
sg18
F0.0072738535844908345
sg19
I2
sg20
(F0.3333333333333333
F21845000.0
tp1776
sg22
I2
sg23
I2
sg24
(lp1777
g0
(g1
g2
Ntp1778
Rp1779
(dp1780
g6
(lp1781
I3
asg8
(F0.0
(F55.666666666666664
I64
F65.66666666666667
tp1782
tp1783
sg11
(lp1784
NaNaF21845000.0
asg13
F1.0
sg14
(lp1785
NaNag0
(g64
g2
Ntp1786
Rp1787
(dp1788
g68
F64.66666666666667
sg11
g69
sg8
(lp1789
sg71
I71
sg13
Nsg14
g72
sg24
Nsg22
Nsg6
g73
sg18
F1.0
sg19
I0
sg20
Nsg74
F65.66666666666667
sg23
I0
sg75
g76
sg495
g496
sg497
F55.666666666666664
sbasg16
F0.1358695652173913
sg17
I1
sg18
F0.1358695652173913
sg19
I1
sg20
(F0.6666666666666666
F21845000.0
tp1790
sg22
F1.0000000000000284
sg23
I2
sg24
(lp1791
g0
(g542
g2
Ntp1792
Rp1793
(dp1794
g6
g73
sg8
(lp1795
sg11
g69
sg13
Nsg14
g72
sg19
I0
sg18
F1.0
sg22
Nsg20
Nsg23
I1
sg24
Nsg495
g496
sbag0
(g542
g2
Ntp1796
Rp1797
(dp1798
g6
g73
sg8
(lp1799
sg11
g69
sg13
Nsg14
g72
sg19
I0
sg18
F1.0
sg22
Nsg20
Nsg23
I1
sg24
Nsg495
g496
sbag1787
asg495
(lp1800
I64
aF64.33333333333334
aF64.66666666666667
asbag0
(g1
g2
Ntp1801
Rp1802
(dp1803
g6
(lp1804
I3
asg8
(F0.0
(F64.66666666666667
I65
F66.0
tp1805
tp1806
sg11
(lp1807
NaNaF22130000.0
asg13
F1.0
sg14
(lp1808
NaNag0
(g64
g2
Ntp1809
Rp1810
(dp1811
g68
F65.66666666666667
sg11
g69
sg8
(lp1812
sg71
I72
sg13
Nsg14
g72
sg24
Nsg22
Nsg6
g73
sg18
F1.0
sg19
I0
sg20
Nsg74
F66.0
sg23
I0
sg75
g76
sg495
g496
sg497
F64.66666666666667
sbasg16
F0.1358695652173913
sg17
I1
sg18
F0.1358695652173913
sg19
I1
sg20
(F0.6666666666666666
F22130000.0
tp1813
sg22
F1.0000000000000284
sg23
I2
sg24
(lp1814
g0
(g542
g2
Ntp1815
Rp1816
(dp1817
g6
g73
sg8
(lp1818
sg11
g69
sg13
Nsg14
g72
sg19
I0
sg18
F1.0
sg22
Nsg20
Nsg23
I1
sg24
Nsg495
g496
sbag0
(g542
g2
Ntp1819
Rp1820
(dp1821
g6
g73
sg8
(lp1822
sg11
g69
sg13
Nsg14
g72
sg19
I0
sg18
F1.0
sg22
Nsg20
Nsg23
I1
sg24
Nsg495
g496
sbag1810
asg495
(lp1823
I65
aF65.33333333333334
aF65.66666666666667
asbasg495
(lp1824
I64
aI65
asbag0
(g1
g2
Ntp1825
Rp1826
(dp1827
g6
(lp1828
I3
aI2
asg8
(F0.0
(F65.66666666666667
F66.0
F68.66666666666667
tp1829
tp1830
sg11
(lp1831
F22230000.0
aF22560000.0
asg13
F1.0
sg14
(lp1832
g1763
aNasg16
F0.00923315383536153
sg17
I1
sg18
F0.00923315383536153
sg19
I2
sg20
(F0.0
F22230000.0
tp1833
sg22
F2.000000000000057
sg23
I2
sg24
(lp1834
g0
(g1
g2
Ntp1835
Rp1836
(dp1837
g6
(lp1838
I3
asg8
(F0.0
(F65.66666666666667
F66.0
F68.66666666666667
tp1839
tp1840
sg11
(lp1841
F22230000.0
aF22340000.0
aF22450000.0
asg13
F1.0
sg14
(lp1842
g1763
aNag0
(g64
g2
Ntp1843
Rp1844
(dp1845
g68
F66.66666666666667
sg11
g69
sg8
(lp1846
sg71
I74
sg13
Nsg14
g72
sg24
Nsg22
Nsg6
g73
sg18
F1.0
sg19
I0
sg20
Nsg74
F68.66666666666667
sg23
I0
sg75
g76
sg495
g496
sg497
F66.0
sbasg16
F0.16474184782608695
sg17
I1
sg18
F0.16474184782608695
sg19
I1
sg20
(F0.0
F22230000.0
tp1847
sg22
F1.0000000000000284
sg23
I2
sg24
(lp1848
g1763
ag0
(g542
g2
Ntp1849
Rp1850
(dp1851
g6
g73
sg8
(lp1852
sg11
g69
sg13
Nsg14
g72
sg19
I0
sg18
F1.0
sg22
Nsg20
Nsg23
I1
sg24
Nsg495
g496
sbag1844
asg495
(lp1853
F66.0
aF66.33333333333334
aF66.66666666666667
asbag0
(g542
g2
Ntp1854
Rp1855
(dp1856
g6
g73
sg8
(lp1857
sg11
g69
sg13
Nsg14
g72
sg19
I0
sg18
F1.0
sg22
Nsg20
Nsg23
I1
sg24
Nsg495
g496
sbasg495
(lp1858
F66.0
aF67.00000000000003
asbasg495
(lp1859
I64
aF66.0
asbag0
(g1
g2
Ntp1860
Rp1861
(dp1862
g6
(lp1863
I3
aI2
aI2
asg8
(F0.0
(F66.66666666666667
I68
F72.66666666666667
tp1864
tp1865
sg11
(lp1866
F22843333.333333336
aF23430000.0
asg13
F1.0
sg14
(lp1867
Nag0
(g64
g2
Ntp1868
Rp1869
(dp1870
g68
F70.0
sg11
g69
sg8
(lp1871
sg71
I78
sg13
Nsg14
g72
sg24
Nsg22
Nsg6
g73
sg18
F1.0
sg19
I0
sg20
Nsg74
F70.66666666666667
sg23
I0
sg75
g76
sg495
g496
sg497
F69.66666666666667
sbasg16
F2.646274000711268e-05
sg17
I1
sg18
F2.646274000711268e-05
sg19
I3
sg20
(F0.0
F22843333.333333336
tp1872
sg22
F4.0
sg23
I2
sg24
(lp1873
g0
(g1
g2
Ntp1874
Rp1875
(dp1876
g6
(lp1877
I3
aI2
asg8
(F0.0
(F66.66666666666667
I68
F70.0
tp1878
tp1879
sg11
(lp1880
F22843333.333333336
aF23130833.333333332
asg13
F1.0
sg14
(lp1881
NaNasg16
F0.0072738535844908345
sg17
I1
sg18
F0.0072738535844908345
sg19
I2
sg20
(F0.3333333333333333
F23035000.0
tp1882
sg22
I2
sg23
I2
sg24
(lp1883
g0
(g1
g2
Ntp1884
Rp1885
(dp1886
g6
(lp1887
I3
asg8
(F0.0
(F66.66666666666667
I68
F69.66666666666667
tp1888
tp1889
sg11
(lp1890
NaNaF23035000.0
asg13
F1.0
sg14
(lp1891
NaNag0
(g64
g2
Ntp1892
Rp1893
(dp1894
g68
F68.66666666666667
sg11
g69
sg8
(lp1895
sg71
I76
sg13
Nsg14
g72
sg24
Nsg22
Nsg6
g73
sg18
F1.0
sg19
I0
sg20
Nsg74
F69.66666666666667
sg23
I0
sg75
g76
sg495
g496
sg497
F66.66666666666667
sbasg16
F0.1358695652173913
sg17
I1
sg18
F0.1358695652173913
sg19
I1
sg20
(F0.6666666666666666
F23035000.0
tp1896
sg22
F1.0000000000000284
sg23
I2
sg24
(lp1897
g0
(g542
g2
Ntp1898
Rp1899
(dp1900
g6
g73
sg8
(lp1901
sg11
g69
sg13
Nsg14
g72
sg19
I0
sg18
F1.0
sg22
Nsg20
Nsg23
I1
sg24
Nsg495
g496
sbag0
(g542
g2
Ntp1902
Rp1903
(dp1904
g6
g73
sg8
(lp1905
sg11
g69
sg13
Nsg14
g72
sg19
I0
sg18
F1.0
sg22
Nsg20
Nsg23
I1
sg24
Nsg495
g496
sbag1893
asg495
(lp1906
I68
aF68.33333333333334
aF68.66666666666667
asbag0
(g1
g2
Ntp1907
Rp1908
(dp1909
g6
(lp1910
I3
asg8
(F0.0
(F68.66666666666667
I69
F70.0
tp1911
tp1912
sg11
(lp1913
NaNaF23322499.999999996
asg13
F1.0
sg14
(lp1914
NaNag0
(g64
g2
Ntp1915
Rp1916
(dp1917
g68
F69.66666666666667
sg11
g69
sg8
(lp1918
sg71
I77
sg13
Nsg14
g72
sg24
Nsg22
Nsg6
g73
sg18
F1.0
sg19
I0
sg20
Nsg74
F70.0
sg23
I0
sg75
g76
sg495
g496
sg497
F68.66666666666667
sbasg16
F0.1358695652173913
sg17
I1
sg18
F0.1358695652173913
sg19
I1
sg20
(F0.6666666666666666
F23322499.999999996
tp1919
sg22
F1.0000000000000284
sg23
I2
sg24
(lp1920
g0
(g542
g2
Ntp1921
Rp1922
(dp1923
g6
g73
sg8
(lp1924
sg11
g69
sg13
Nsg14
g72
sg19
I0
sg18
F1.0
sg22
Nsg20
Nsg23
I1
sg24
Nsg495
g496
sbag0
(g542
g2
Ntp1925
Rp1926
(dp1927
g6
g73
sg8
(lp1928
sg11
g69
sg13
Nsg14
g72
sg19
I0
sg18
F1.0
sg22
Nsg20
Nsg23
I1
sg24
Nsg495
g496
sbag1916
asg495
(lp1929
I69
aF69.33333333333334
aF69.66666666666667
asbasg495
(lp1930
I68
aI69
asbag0
(g1
g2
Ntp1931
Rp1932
(dp1933
g6
(lp1934
I3
aI2
asg8
(F0.0
(F69.66666666666667
F70.0
F72.66666666666667
tp1935
tp1936
sg11
(lp1937
F23430000.0
aF23748750.0
asg13
F1.0
sg14
(lp1938
g1869
aNasg16
F0.00923315383536153
sg17
I1
sg18
F0.00923315383536153
sg19
I2
sg20
(F0.0
F23430000.0
tp1939
sg22
F2.000000000000057
sg23
I2
sg24
(lp1940
g0
(g1
g2
Ntp1941
Rp1942
(dp1943
g6
(lp1944
I3
asg8
(F0.0
(F69.66666666666667
F70.0
F72.66666666666667
tp1945
tp1946
sg11
(lp1947
F23430000.0
aF23536250.0
aF23642500.0
asg13
F1.0
sg14
(lp1948
g1869
aNag0
(g64
g2
Ntp1949
Rp1950
(dp1951
g68
F70.66666666666667
sg11
g69
sg8
(lp1952
sg71
I79
sg13
Nsg14
g72
sg24
Nsg22
Nsg6
g73
sg18
F1.0
sg19
I0
sg20
Nsg74
F72.66666666666667
sg23
I0
sg75
g76
sg495
g496
sg497
F70.0
sbasg16
F0.16474184782608695
sg17
I1
sg18
F0.16474184782608695
sg19
I1
sg20
(F0.0
F23430000.0
tp1953
sg22
F1.0000000000000284
sg23
I2
sg24
(lp1954
g1869
ag0
(g542
g2
Ntp1955
Rp1956
(dp1957
g6
g73
sg8
(lp1958
sg11
g69
sg13
Nsg14
g72
sg19
I0
sg18
F1.0
sg22
Nsg20
Nsg23
I1
sg24
Nsg495
g496
sbag1950
asg495
(lp1959
F70.0
aF70.33333333333334
aF70.66666666666667
asbag0
(g542
g2
Ntp1960
Rp1961
(dp1962
g6
g73
sg8
(lp1963
sg11
g69
sg13
Nsg14
g72
sg19
I0
sg18
F1.0
sg22
Nsg20
Nsg23
I1
sg24
Nsg495
g496
sbasg495
(lp1964
F70.0
aF71.00000000000003
asbasg495
(lp1965
I68
aF70.0
asbasg495
(lp1966
I64
aI68
asbag0
(g1
g2
Ntp1967
Rp1968
(dp1969
g6
(lp1970
I3
aI2
aI2
aI2
asg8
(F0.0
(F70.66666666666667
I72
F80.66666666666667
tp1971
tp1972
sg11
(lp1973
F24045833.333333332
aF25233333.333333332
asg13
F1.0
sg14
(lp1974
NaNasg16
F2.7592420722604915e-10
sg17
I1
sg18
F2.7592420722604915e-10
sg19
I4
sg20
(F0.0
F24045833.333333332
tp1975
sg22
I8
sg23
I2
sg24
(lp1976
g0
(g1
g2
Ntp1977
Rp1978
(dp1979
g6
(lp1980
I3
aI2
aI2
asg8
(F0.0
(F70.66666666666667
I72
F76.66666666666667
tp1981
tp1982
sg11
(lp1983
F24045833.333333332
aF24630000.0
asg13
F1.0
sg14
(lp1984
Nag0
(g64
g2
Ntp1985
Rp1986
(dp1987
g68
F74.0
sg11
g69
sg8
(lp1988
sg71
I83
sg13
Nsg14
g72
sg24
Nsg22
Nsg6
g73
sg18
F1.0
sg19
I0
sg20
Nsg74
F74.66666666666667
sg23
I0
sg75
g76
sg495
g496
sg497
F73.66666666666667
sbasg16
F2.646274000711268e-05
sg17
I1
sg18
F2.646274000711268e-05
sg19
I3
sg20
(F0.0
F24045833.333333332
tp1989
sg22
F4.0
sg23
I2
sg24
(lp1990
g0
(g1
g2
Ntp1991
Rp1992
(dp1993
g6
(lp1994
I3
aI2
asg8
(F0.0
(F70.66666666666667
I72
F74.0
tp1995
tp1996
sg11
(lp1997
F24045833.333333332
aF24333333.333333332
asg13
F1.0
sg14
(lp1998
NaNasg16
F0.0072738535844908345
sg17
I1
sg18
F0.0072738535844908345
sg19
I2
sg20
(F0.3333333333333333
F24237500.0
tp1999
sg22
I2
sg23
I2
sg24
(lp2000
g0
(g1
g2
Ntp2001
Rp2002
(dp2003
g6
(lp2004
I3
asg8
(F0.0
(F70.66666666666667
I72
F73.66666666666667
tp2005
tp2006
sg11
(lp2007
NaNaF24237500.0
asg13
F1.0
sg14
(lp2008
NaNag0
(g64
g2
Ntp2009
Rp2010
(dp2011
g68
F72.66666666666667
sg11
g69
sg8
(lp2012
sg71
I81
sg13
Nsg14
g72
sg24
Nsg22
Nsg6
g73
sg18
F1.0
sg19
I0
sg20
Nsg74
F73.66666666666667
sg23
I0
sg75
g76
sg495
g496
sg497
F70.66666666666667
sbasg16
F0.1358695652173913
sg17
I1
sg18
F0.1358695652173913
sg19
I1
sg20
(F0.6666666666666666
F24237500.0
tp2013
sg22
F1.0000000000000284
sg23
I2
sg24
(lp2014
g0
(g542
g2
Ntp2015
Rp2016
(dp2017
g6
g73
sg8
(lp2018
sg11
g69
sg13
Nsg14
g72
sg19
I0
sg18
F1.0
sg22
Nsg20
Nsg23
I1
sg24
Nsg495
g496
sbag0
(g542
g2
Ntp2019
Rp2020
(dp2021
g6
g73
sg8
(lp2022
sg11
g69
sg13
Nsg14
g72
sg19
I0
sg18
F1.0
sg22
Nsg20
Nsg23
I1
sg24
Nsg495
g496
sbag2010
asg495
(lp2023
I72
aF72.33333333333334
aF72.66666666666667
asbag0
(g1
g2
Ntp2024
Rp2025
(dp2026
g6
(lp2027
I3
asg8
(F0.0
(F72.66666666666667
I73
F74.0
tp2028
tp2029
sg11
(lp2030
NaNaF24525000.0
asg13
F1.0
sg14
(lp2031
NaNag0
(g64
g2
Ntp2032
Rp2033
(dp2034
g68
F73.66666666666667
sg11
g69
sg8
(lp2035
sg71
I82
sg13
Nsg14
g72
sg24
Nsg22
Nsg6
g73
sg18
F1.0
sg19
I0
sg20
Nsg74
F74.0
sg23
I0
sg75
g76
sg495
g496
sg497
F72.66666666666667
sbasg16
F0.1358695652173913
sg17
I1
sg18
F0.1358695652173913
sg19
I1
sg20
(F0.6666666666666666
F24525000.0
tp2036
sg22
F1.0000000000000284
sg23
I2
sg24
(lp2037
g0
(g542
g2
Ntp2038
Rp2039
(dp2040
g6
g73
sg8
(lp2041
sg11
g69
sg13
Nsg14
g72
sg19
I0
sg18
F1.0
sg22
Nsg20
Nsg23
I1
sg24
Nsg495
g496
sbag0
(g542
g2
Ntp2042
Rp2043
(dp2044
g6
g73
sg8
(lp2045
sg11
g69
sg13
Nsg14
g72
sg19
I0
sg18
F1.0
sg22
Nsg20
Nsg23
I1
sg24
Nsg495
g496
sbag2033
asg495
(lp2046
I73
aF73.33333333333334
aF73.66666666666667
asbasg495
(lp2047
I72
aI73
asbag0
(g1
g2
Ntp2048
Rp2049
(dp2050
g6
(lp2051
I3
aI2
asg8
(F0.0
(F73.66666666666667
F74.0
F76.66666666666667
tp2052
tp2053
sg11
(lp2054
F24630000.0
aF24941250.0
asg13
F1.0
sg14
(lp2055
g1986
aNasg16
F0.00923315383536153
sg17
I1
sg18
F0.00923315383536153
sg19
I2
sg20
(F0.0
F24630000.0
tp2056
sg22
F2.000000000000057
sg23
I2
sg24
(lp2057
g0
(g1
g2
Ntp2058
Rp2059
(dp2060
g6
(lp2061
I3
asg8
(F0.0
(F73.66666666666667
F74.0
F76.66666666666667
tp2062
tp2063
sg11
(lp2064
F24630000.0
aF24733750.0
aF24837500.0
asg13
F1.0
sg14
(lp2065
g1986
aNag0
(g64
g2
Ntp2066
Rp2067
(dp2068
g68
F74.66666666666667
sg11
g69
sg8
(lp2069
sg71
I84
sg13
Nsg14
g72
sg24
Nsg22
Nsg6
g73
sg18
F1.0
sg19
I0
sg20
Nsg74
F76.66666666666667
sg23
I0
sg75
g76
sg495
g496
sg497
F74.0
sbasg16
F0.16474184782608695
sg17
I1
sg18
F0.16474184782608695
sg19
I1
sg20
(F0.0
F24630000.0
tp2070
sg22
F1.0000000000000284
sg23
I2
sg24
(lp2071
g1986
ag0
(g542
g2
Ntp2072
Rp2073
(dp2074
g6
g73
sg8
(lp2075
sg11
g69
sg13
Nsg14
g72
sg19
I0
sg18
F1.0
sg22
Nsg20
Nsg23
I1
sg24
Nsg495
g496
sbag2067
asg495
(lp2076
F74.0
aF74.33333333333334
aF74.66666666666667
asbag0
(g542
g2
Ntp2077
Rp2078
(dp2079
g6
g73
sg8
(lp2080
sg11
g69
sg13
Nsg14
g72
sg19
I0
sg18
F1.0
sg22
Nsg20
Nsg23
I1
sg24
Nsg495
g496
sbasg495
(lp2081
F74.0
aF75.00000000000003
asbasg495
(lp2082
I72
aF74.0
asbag0
(g1
g2
Ntp2083
Rp2084
(dp2085
g6
(lp2086
I3
aI2
aI2
asg8
(F0.0
(F74.66666666666667
I76
F80.66666666666667
tp2087
tp2088
sg11
(lp2089
F25233333.333333332
aF25812500.0
asg13
F1.0
sg14
(lp2090
Nag0
(g64
g2
Ntp2091
Rp2092
(dp2093
g68
F78.0
sg11
g69
sg8
(lp2094
sg71
I88
sg13
Nsg14
g72
sg24
Nsg22
Nsg6
g73
sg18
F1.0
sg19
I0
sg20
Nsg74
F78.66666666666667
sg23
I0
sg75
g76
sg495
g496
sg497
F77.66666666666667
sbasg16
F2.646274000711268e-05
sg17
I1
sg18
F2.646274000711268e-05
sg19
I3
sg20
(F0.0
F25233333.333333332
tp2095
sg22
F4.0
sg23
I2
sg24
(lp2096
g0
(g1
g2
Ntp2097
Rp2098
(dp2099
g6
(lp2100
I3
aI2
asg8
(F0.0
(F74.66666666666667
I76
F78.0
tp2101
tp2102
sg11
(lp2103
F25233333.333333332
aF25528333.333333332
asg13
F1.0
sg14
(lp2104
NaNasg16
F0.0072738535844908345
sg17
I1
sg18
F0.0072738535844908345
sg19
I2
sg20
(F0.3333333333333333
F25430000.0
tp2105
sg22
I2
sg23
I2
sg24
(lp2106
g0
(g1
g2
Ntp2107
Rp2108
(dp2109
g6
(lp2110
I3
asg8
(F0.0
(F74.66666666666667
I76
F77.66666666666667
tp2111
tp2112
sg11
(lp2113
NaNaF25430000.0
asg13
F1.0
sg14
(lp2114
NaNag0
(g64
g2
Ntp2115
Rp2116
(dp2117
g68
F76.66666666666667
sg11
g69
sg8
(lp2118
sg71
I86
sg13
Nsg14
g72
sg24
Nsg22
Nsg6
g73
sg18
F1.0
sg19
I0
sg20
Nsg74
F77.66666666666667
sg23
I0
sg75
g76
sg495
g496
sg497
F74.66666666666667
sbasg16
F0.1358695652173913
sg17
I1
sg18
F0.1358695652173913
sg19
I1
sg20
(F0.6666666666666666
F25430000.0
tp2119
sg22
F1.0000000000000284
sg23
I2
sg24
(lp2120
g0
(g542
g2
Ntp2121
Rp2122
(dp2123
g6
g73
sg8
(lp2124
sg11
g69
sg13
Nsg14
g72
sg19
I0
sg18
F1.0
sg22
Nsg20
Nsg23
I1
sg24
Nsg495
g496
sbag0
(g542
g2
Ntp2125
Rp2126
(dp2127
g6
g73
sg8
(lp2128
sg11
g69
sg13
Nsg14
g72
sg19
I0
sg18
F1.0
sg22
Nsg20
Nsg23
I1
sg24
Nsg495
g496
sbag2116
asg495
(lp2129
I76
aF76.33333333333334
aF76.66666666666667
asbag0
(g1
g2
Ntp2130
Rp2131
(dp2132
g6
(lp2133
I3
asg8
(F0.0
(F76.66666666666667
I77
F78.0
tp2134
tp2135
sg11
(lp2136
NaNaF25725000.0
asg13
F1.0
sg14
(lp2137
NaNag0
(g64
g2
Ntp2138
Rp2139
(dp2140
g68
F77.66666666666667
sg11
g69
sg8
(lp2141
sg71
I87
sg13
Nsg14
g72
sg24
Nsg22
Nsg6
g73
sg18
F1.0
sg19
I0
sg20
Nsg74
F78.0
sg23
I0
sg75
g76
sg495
g496
sg497
F76.66666666666667
sbasg16
F0.1358695652173913
sg17
I1
sg18
F0.1358695652173913
sg19
I1
sg20
(F0.6666666666666666
F25725000.0
tp2142
sg22
F1.0000000000000284
sg23
I2
sg24
(lp2143
g0
(g542
g2
Ntp2144
Rp2145
(dp2146
g6
g73
sg8
(lp2147
sg11
g69
sg13
Nsg14
g72
sg19
I0
sg18
F1.0
sg22
Nsg20
Nsg23
I1
sg24
Nsg495
g496
sbag0
(g542
g2
Ntp2148
Rp2149
(dp2150
g6
g73
sg8
(lp2151
sg11
g69
sg13
Nsg14
g72
sg19
I0
sg18
F1.0
sg22
Nsg20
Nsg23
I1
sg24
Nsg495
g496
sbag2139
asg495
(lp2152
I77
aF77.33333333333334
aF77.66666666666667
asbasg495
(lp2153
I76
aI77
asbag0
(g1
g2
Ntp2154
Rp2155
(dp2156
g6
(lp2157
I3
aI2
asg8
(F0.0
(F77.66666666666667
F78.0
F80.66666666666667
tp2158
tp2159
sg11
(lp2160
F25812500.0
aF26153750.0
asg13
F1.0
sg14
(lp2161
g2092
aNasg16
F0.00923315383536153
sg17
I1
sg18
F0.00923315383536153
sg19
I2
sg20
(F0.0
F25812500.0
tp2162
sg22
F2.000000000000057
sg23
I2
sg24
(lp2163
g0
(g1
g2
Ntp2164
Rp2165
(dp2166
g6
(lp2167
I3
asg8
(F0.0
(F77.66666666666667
F78.0
F80.66666666666667
tp2168
tp2169
sg11
(lp2170
F25812500.0
aF25926250.0
aF26040000.0
asg13
F1.0
sg14
(lp2171
g2092
aNag0
(g64
g2
Ntp2172
Rp2173
(dp2174
g68
F78.66666666666667
sg11
g69
sg8
(lp2175
sg71
I89
sg13
Nsg14
g72
sg24
Nsg22
Nsg6
g73
sg18
F1.0
sg19
I0
sg20
Nsg74
F80.66666666666667
sg23
I0
sg75
g76
sg495
g496
sg497
F78.0
sbasg16
F0.16474184782608695
sg17
I1
sg18
F0.16474184782608695
sg19
I1
sg20
(F0.0
F25812500.0
tp2176
sg22
F1.0000000000000284
sg23
I2
sg24
(lp2177
g2092
ag0
(g542
g2
Ntp2178
Rp2179
(dp2180
g6
g73
sg8
(lp2181
sg11
g69
sg13
Nsg14
g72
sg19
I0
sg18
F1.0
sg22
Nsg20
Nsg23
I1
sg24
Nsg495
g496
sbag2173
asg495
(lp2182
F78.0
aF78.33333333333334
aF78.66666666666667
asbag0
(g542
g2
Ntp2183
Rp2184
(dp2185
g6
g73
sg8
(lp2186
sg11
g69
sg13
Nsg14
g72
sg19
I0
sg18
F1.0
sg22
Nsg20
Nsg23
I1
sg24
Nsg495
g496
sbasg495
(lp2187
F78.0
aF79.00000000000003
asbasg495
(lp2188
I76
aF78.0
asbasg495
(lp2189
I72
aI76
asbasg495
(lp2190
I64
aI72
asbag0
(g1
g2
Ntp2191
Rp2192
(dp2193
g6
(lp2194
I3
aI2
aI2
aI2
aI2
asg8
(F0.0
(F78.66666666666667
I80
F96.66666666666667
tp2195
tp2196
sg11
(lp2197
F26450000.0
aF28905500.0
asg13
F1.0
sg14
(lp2198
NaNasg16
F3.4131760508004714e-14
sg17
I1
sg18
F3.4131760508004714e-14
sg19
I5
sg20
(F0.0
F26450000.0
tp2199
sg22
F16.0
sg23
I2
sg24
(lp2200
g0
(g1
g2
Ntp2201
Rp2202
(dp2203
g6
(lp2204
I3
aI2
aI2
aI2
asg8
(F0.0
(F78.66666666666667
I80
F90.0
tp2205
tp2206
sg11
(lp2207
F26450000.0
aF27615000.0
asg13
F1.0
sg14
(lp2208
Nag0
(g64
g2
Ntp2209
Rp2210
(dp2211
g68
F84.0
sg11
g69
sg8
(lp2212
sg71
I94
sg13
Nsg14
g72
sg24
Nsg22
Nsg6
g73
sg18
F1.0
sg19
I0
sg20
Nsg74
F85.0
sg23
I0
sg75
g76
sg495
g496
sg497
F83.0
sbasg16
F1.8231116090427342e-08
sg17
I1
sg18
F1.8231116090427342e-08
sg19
I4
sg20
(F0.0
F26450000.0
tp2213
sg22
F8.0
sg23
I2
sg24
(lp2214
g0
(g1
g2
Ntp2215
Rp2216
(dp2217
g6
(lp2218
I3
aI2
aI2
asg8
(F0.0
(F78.66666666666667
I80
F84.0
tp2219
tp2220
sg11
(lp2221
F26450000.0
aF27025000.0
asg13
F1.0
sg14
(lp2222
Nag0
(g64
g2
Ntp2223
Rp2224
(dp2225
g68
F82.0
sg11
g69
sg8
(lp2226
sg71
I92
sg13
Nsg14
g72
sg24
Nsg22
Nsg6
g73
sg18
F1.0
sg19
I0
sg20
Nsg74
F83.0
sg23
I0
sg75
g76
sg495
g496
sg497
F80.66666666666667
sbasg16
F0.0001854906786194461
sg17
I1
sg18
F0.0001854906786194461
sg19
I3
sg20
(F0.5
F27025000.0
tp2227
sg22
F4.0
sg23
I2
sg24
(lp2228
g0
(g1
g2
Ntp2229
Rp2230
(dp2231
g6
(lp2232
I3
aI2
asg8
(F0.0
(F78.66666666666667
I80
F82.0
tp2233
tp2234
sg11
(lp2235
NaNasg13
F1.0
sg14
(lp2236
NaNasg16
F0.007614972235349716
sg17
I1
sg18
F0.007614972235349716
sg19
I2
sg20
(F0.3333333333333333
F26635000.0
tp2237
sg22
F2.000000000000057
sg23
I2
sg24
(lp2238
g0
(g1
g2
Ntp2239
Rp2240
(dp2241
g6
(lp2242
I3
asg8
(F0.0
(F78.66666666666667
I80
F82.0
tp2243
tp2244
sg11
(lp2245
NaNaF26635000.0
asg13
F1.0
sg14
(lp2246
NaNag0
(g64
g2
Ntp2247
Rp2248
(dp2249
g68
F80.66666666666667
sg11
g69
sg8
(lp2250
sg71
I91
sg13
Nsg14
g72
sg24
Nsg22
Nsg6
g73
sg18
F1.0
sg19
I0
sg20
Nsg74
F82.0
sg23
I0
sg75
g76
sg495
g496
sg497
F78.66666666666667
sbasg16
F0.1358695652173913
sg17
I1
sg18
F0.1358695652173913
sg19
I1
sg20
(F0.6666666666666666
F26635000.0
tp2251
sg22
F1.0000000000000284
sg23
I2
sg24
(lp2252
g0
(g542
g2
Ntp2253
Rp2254
(dp2255
g6
g73
sg8
(lp2256
sg11
g69
sg13
Nsg14
g72
sg19
I0
sg18
F1.0
sg22
Nsg20
Nsg23
I1
sg24
Nsg495
g496
sbag0
(g542
g2
Ntp2257
Rp2258
(dp2259
g6
g73
sg8
(lp2260
sg11
g69
sg13
Nsg14
g72
sg19
I0
sg18
F1.0
sg22
Nsg20
Nsg23
I1
sg24
Nsg495
g496
sbag2248
asg495
(lp2261
I80
aF80.33333333333334
aF80.66666666666667
asbag0
(g542
g2
Ntp2262
Rp2263
(dp2264
g6
g73
sg8
(lp2265
sg11
g69
sg13
Nsg14
g72
sg19
I0
sg18
F1.0
sg22
Nsg20
Nsg23
I1
sg24
Nsg495
g496
sbasg495
(lp2266
I80
aF81.00000000000003
asbag0
(g1
g2
Ntp2267
Rp2268
(dp2269
g6
(lp2270
I2
asg8
(F0.0
(F80.66666666666667
F82.0
F84.0
tp2271
tp2272
sg11
(lp2273
F27025000.0
aF27312500.0
asg13
F1.0
sg14
(lp2274
g2224
ag0
(g64
g2
Ntp2275
Rp2276
(dp2277
g68
F83.0
sg11
g69
sg8
(lp2278
sg71
I93
sg13
Nsg14
g72
sg24
Nsg22
Nsg6
g73
sg18
F1.0
sg19
I0
sg20
Nsg74
F84.0
sg23
I0
sg75
g76
sg495
g496
sg497
F82.0
sbasg16
F0.06182065217391304
sg17
I1
sg18
F0.06182065217391304
sg19
I1
sg20
(F0.0
F27025000.0
tp2279
sg22
F2.0
sg23
I2
sg24
(lp2280
g2224
ag2276
asg495
(lp2281
F82.0
aF83.0
asbasg495
(lp2282
I80
aF82.0
asbag0
(g1
g2
Ntp2283
Rp2284
(dp2285
g6
(lp2286
I3
aI2
aI2
asg8
(F0.0
(F83.0
F84.0
F90.0
tp2287
tp2288
sg11
(lp2289
F27615000.0
aF28222500.0
asg13
F1.0
sg14
(lp2290
g2210
ag0
(g64
g2
Ntp2291
Rp2292
(dp2293
g68
F86.0
sg11
g69
sg8
(lp2294
sg71
I96
sg13
Nsg14
g72
sg24
Nsg22
Nsg6
g73
sg18
F1.0
sg19
I0
sg20
Nsg74
F87.0
sg23
I0
sg75
g76
sg495
g496
sg497
F85.0
sbasg16
F0.0002494428057707415
sg17
I1
sg18
F0.0002494428057707415
sg19
I3
sg20
(F0.0
F27615000.0
tp2295
sg22
F4.0
sg23
I2
sg24
(lp2296
g0
(g1
g2
Ntp2297
Rp2298
(dp2299
g6
(lp2300
I2
asg8
(F0.0
(F83.0
F84.0
F86.0
tp2301
tp2302
sg11
(lp2303
F27615000.0
aF27905000.0
asg13
F1.0
sg14
(lp2304
g2210
ag0
(g64
g2
Ntp2305
Rp2306
(dp2307
g68
F85.0
sg11
g69
sg8
(lp2308
sg71
I95
sg13
Nsg14
g72
sg24
Nsg22
Nsg6
g73
sg18
F1.0
sg19
I0
sg20
Nsg74
F86.0
sg23
I0
sg75
g76
sg495
g496
sg497
F84.0
sbasg16
F0.06182065217391304
sg17
I1
sg18
F0.06182065217391304
sg19
I1
sg20
(F0.0
F27615000.0
tp2309
sg22
F2.0
sg23
I2
sg24
(lp2310
g2210
ag2306
asg495
(lp2311
F84.0
aF85.0
asbag0
(g1
g2
Ntp2312
Rp2313
(dp2314
g6
(lp2315
I3
aI2
asg8
(F0.0
(F85.0
F86.0
F90.0
tp2316
tp2317
sg11
(lp2318
F28222500.0
aF28520000.0
asg13
F1.0
sg14
(lp2319
g2292
ag0
(g64
g2
Ntp2320
Rp2321
(dp2322
g68
F87.0
sg11
g69
sg8
(lp2323
sg71
I97
sg13
Nsg14
g72
sg24
Nsg22
Nsg6
g73
sg18
F1.0
sg19
I0
sg20
Nsg74
F87.66666666666667
sg23
I0
sg75
g76
sg495
g496
sg497
F86.0
sbasg16
F0.010240406981037333
sg17
I1
sg18
F0.010240406981037333
sg19
I2
sg20
(F0.0
F28222500.0
tp2324
sg22
F2.0
sg23
I2
sg24
(lp2325
g2292
ag0
(g1
g2
Ntp2326
Rp2327
(dp2328
g6
(lp2329
I3
asg8
(F0.0
(F86.0
F87.0
F90.0
tp2330
tp2331
sg11
(lp2332
F28520000.0
aF28626250.0
aF28732500.0
asg13
F1.0
sg14
(lp2333
g2321
aNag0
(g64
g2
Ntp2334
Rp2335
(dp2336
g68
F87.66666666666667
sg11
g69
sg8
(lp2337
sg71
I98
sg13
Nsg14
g72
sg24
Nsg22
Nsg6
g73
sg18
F1.0
sg19
I0
sg20
Nsg74
F90.0
sg23
I0
sg75
g76
sg495
g496
sg497
F87.0
sbasg16
F0.16474184782608695
sg17
I1
sg18
F0.16474184782608695
sg19
I1
sg20
(F0.0
F28520000.0
tp2338
sg22
F1.0000000000000284
sg23
I2
sg24
(lp2339
g2321
ag0
(g542
g2
Ntp2340
Rp2341
(dp2342
g6
g73
sg8
(lp2343
sg11
g69
sg13
Nsg14
g72
sg19
I0
sg18
F1.0
sg22
Nsg20
Nsg23
I1
sg24
Nsg495
g496
sbag2335
asg495
(lp2344
F87.0
aF87.33333333333334
aF87.66666666666667
asbasg495
(lp2345
F86.0
aF87.0
asbasg495
(lp2346
F84.0
aF86.0
asbasg495
(lp2347
I80
aF84.0
asbag0
(g1
g2
Ntp2348
Rp2349
(dp2350
g6
(lp2351
I3
aI2
aI2
aI2
asg8
(F0.5
(F87.66666666666667
F92.0
F96.66666666666667
tp2352
tp2353
sg11
(lp2354
F28905500.0
aF30057500.0
asg13
F1.0
sg14
(lp2355
Nag0
(g64
g2
Ntp2356
Rp2357
(dp2358
g68
F92.0
sg11
g69
sg8
(lp2359
sg71
I102
sg13
Nsg14
g72
sg24
Nsg22
Nsg6
g73
sg18
F1.0
sg19
I0
sg20
Nsg74
F93.66666666666667
sg23
I0
sg75
g76
sg495
g496
sg497
F90.0
sbasg16
F4.751440000992703e-06
sg17
I1
sg18
F4.751440000992703e-06
sg19
I4
sg20
(F0.5
F30057500.0
tp2360
sg22
F8.0
sg23
I2
sg24
(lp2361
g0
(g1
g2
Ntp2362
Rp2363
(dp2364
g6
(lp2365
I2
asg8
(F0.5
(F87.66666666666667
F90.0
F92.0
tp2366
tp2367
sg11
(lp2368
NaF29432500.0
asg13
F1.0
sg14
(lp2369
Nag0
(g64
g2
Ntp2370
Rp2371
(dp2372
g68
F90.0
sg11
g69
sg8
(lp2373
sg71
I100
sg13
Nsg14
g72
sg24
Nsg22
Nsg6
g73
sg18
F1.0
sg19
I0
sg20
Nsg74
F92.0
sg23
I0
sg75
g76
sg495
g496
sg497
F87.66666666666667
sbasg16
F0.025475543478260868
sg17
I1
sg18
F0.025475543478260868
sg19
I1
sg20
(F0.5
F29432500.0
tp2374
sg22
Nsg23
I2
sg24
(lp2375
g0
(g542
g2
Ntp2376
Rp2377
(dp2378
g6
g73
sg8
(lp2379
sg11
g69
sg13
Nsg14
g72
sg19
I0
sg18
F1.0
sg22
Nsg20
Nsg23
I1
sg24
Nsg495
g496
sbag2371
asg495
(lp2380
NaF90.0
asbag0
(g1
g2
Ntp2381
Rp2382
(dp2383
g6
(lp2384
I3
aI2
aI2
asg8
(F0.0
(F90.0
F92.0
F96.66666666666667
tp2385
tp2386
sg11
(lp2387
F30057500.0
aF30633500.0
asg13
F1.0
sg14
(lp2388
g2357
aNasg16
F0.0004733491572924586
sg17
I1
sg18
F0.0004733491572924586
sg19
I3
sg20
(F0.0
F30057500.0
tp2389
sg22
F4.0
sg23
I2
sg24
(lp2390
g0
(g1
g2
Ntp2391
Rp2392
(dp2393
g6
(lp2394
I3
aI2
asg8
(F0.0
(F90.0
F92.0
F96.66666666666667
tp2395
tp2396
sg11
(lp2397
F30057500.0
aF30345500.0
asg13
F1.0
sg14
(lp2398
g2357
aNasg16
F0.008445696479206049
sg17
I1
sg18
F0.008445696479206049
sg19
I2
sg20
(F0.0
F30057500.0
tp2399
sg22
F2.0
sg23
I2
sg24
(lp2400
g2357
ag0
(g1
g2
Ntp2401
Rp2402
(dp2403
g6
(lp2404
I3
asg8
(F0.0
(F92.0
I93
F96.66666666666667
tp2405
tp2406
sg11
(lp2407
NaNaF30537500.0
asg13
F1.0
sg14
(lp2408
NaNag0
(g64
g2
Ntp2409
Rp2410
(dp2411
g68
F93.66666666666667
sg11
g69
sg8
(lp2412
sg71
I103
sg13
Nsg14
g72
sg24
Nsg22
Nsg6
g73
sg18
F1.0
sg19
I0
sg20
Nsg74
F96.66666666666667
sg23
I0
sg75
g76
sg495
g496
sg497
F92.0
sbasg16
F0.1358695652173913
sg17
I1
sg18
F0.1358695652173913
sg19
I1
sg20
(F0.6666666666666666
F30537500.0
tp2413
sg22
F1.0000000000000284
sg23
I2
sg24
(lp2414
g0
(g542
g2
Ntp2415
Rp2416
(dp2417
g6
g73
sg8
(lp2418
sg11
g69
sg13
Nsg14
g72
sg19
I0
sg18
F1.0
sg22
Nsg20
Nsg23
I1
sg24
Nsg495
g496
sbag0
(g542
g2
Ntp2419
Rp2420
(dp2421
g6
g73
sg8
(lp2422
sg11
g69
sg13
Nsg14
g72
sg19
I0
sg18
F1.0
sg22
Nsg20
Nsg23
I1
sg24
Nsg495
g496
sbag2410
asg495
(lp2423
I93
aF93.33333333333334
aF93.66666666666667
asbasg495
(lp2424
F92.0
aI93
asbag0
(g542
g2
Ntp2425
Rp2426
(dp2427
g6
g73
sg8
(lp2428
sg11
g69
sg13
Nsg14
g72
sg19
I0
sg18
F1.0
sg22
Nsg20
Nsg23
I1
sg24
Nsg495
g496
sbasg495
(lp2429
F92.0
aF94.0
asbasg495
(lp2430
F88.0
aF92.0
asbasg495
(lp2431
I80
aF88.0
asbasg495
(lp2432
I64
aI80
asbag0
(g1
g2
Ntp2433
Rp2434
(dp2435
g6
(lp2436
I3
aI2
aI2
aI2
aI2
aI2
asg8
(F0.0
(F93.66666666666667
I96
F260.0
tp2437
tp2438
sg11
(lp2439
F31193750.0
aF36040000.0
asg13
F1.0
sg14
(lp2440
NaNasg16
F1.772700833222607e-30
sg17
I1
sg18
F1.772700833222607e-30
sg19
I6
sg20
(F0.0
F31193750.0
tp2441
sg22
I32
sg23
I2
sg24
(lp2442
g0
(g1
g2
Ntp2443
Rp2444
(dp2445
g6
(lp2446
I3
aI2
aI2
aI2
aI2
asg8
(F0.0
(F93.66666666666667
I96
F112.66666666666667
tp2447
tp2448
sg11
(lp2449
F31193750.0
aF33641250.0
asg13
F1.0
sg14
(lp2450
NaNasg16
F1.3265450023133437e-19
sg17
I1
sg18
F1.3265450023133437e-19
sg19
I5
sg20
(F0.0
F31193750.0
tp2451
sg22
I16
sg23
I2
sg24
(lp2452
g0
(g1
g2
Ntp2453
Rp2454
(dp2455
g6
(lp2456
I3
aI2
aI2
aI2
asg8
(F0.0
(F93.66666666666667
I96
F104.66666666666667
tp2457
tp2458
sg11
(lp2459
F31193750.0
aF32422500.0
asg13
F1.0
sg14
(lp2460
Nag0
(g64
g2
Ntp2461
Rp2462
(dp2463
g68
F100.0
sg11
g69
sg8
(lp2464
sg71
I110
sg13
Nsg14
g72
sg24
Nsg22
Nsg6
g73
sg18
F1.0
sg19
I0
sg20
Nsg74
F100.66666666666667
sg23
I0
sg75
g76
sg495
g496
sg497
F98.66666666666667
sbasg16
F7.577238002774372e-09
sg17
I1
sg18
F7.577238002774372e-09
sg19
I4
sg20
(F0.0
F31193750.0
tp2465
sg22
F8.0
sg23
I2
sg24
(lp2466
g0
(g1
g2
Ntp2467
Rp2468
(dp2469
g6
(lp2470
I3
aI2
aI2
asg8
(F0.0
(F93.66666666666667
I96
F100.0
tp2471
tp2472
sg11
(lp2473
F31193750.0
aF31834999.999999996
asg13
F1.0
sg14
(lp2474
Nag0
(g64
g2
Ntp2475
Rp2476
(dp2477
g68
F98.0
sg11
g69
sg8
(lp2478
sg71
I108
sg13
Nsg14
g72
sg24
Nsg22
Nsg6
g73
sg18
F1.0
sg19
I0
sg20
Nsg74
F98.66666666666667
sg23
I0
sg75
g76
sg495
g496
sg497
F97.66666666666667
sbasg16
F3.2086072258624124e-05
sg17
I1
sg18
F3.2086072258624124e-05
sg19
I3
sg20
(F0.0
F31193750.0
tp2479
sg22
F4.0
sg23
I2
sg24
(lp2480
g0
(g1
g2
Ntp2481
Rp2482
(dp2483
g6
(lp2484
I3
aI2
asg8
(F0.0
(F93.66666666666667
I96
F98.0
tp2485
tp2486
sg11
(lp2487
F31193750.0
aF31520000.0
asg13
F1.0
sg14
(lp2488
Nag0
(g64
g2
Ntp2489
Rp2490
(dp2491
g68
F97.0
sg11
g69
sg8
(lp2492
sg71
I106
sg13
Nsg14
g72
sg24
Nsg22
Nsg6
g73
sg18
F1.0
sg19
I0
sg20
Nsg74
F97.66666666666667
sg23
I0
sg75
g76
sg495
g496
sg497
F96.66666666666667
sbasg16
F0.008819547471195137
sg17
I1
sg18
F0.008819547471195137
sg19
I2
sg20
(F0.5
F31520000.0
tp2493
sg22
F2.0
sg23
I2
sg24
(lp2494
g0
(g1
g2
Ntp2495
Rp2496
(dp2497
g6
(lp2498
I3
asg8
(F0.0
(F93.66666666666667
I96
F97.0
tp2499
tp2500
sg11
(lp2501
NaNaF31425000.0
asg13
F1.0
sg14
(lp2502
NaNag0
(g64
g2
Ntp2503
Rp2504
(dp2505
g68
F96.66666666666667
sg11
g69
sg8
(lp2506
sg71
I105
sg13
Nsg14
g72
sg24
Nsg22
Nsg6
g73
sg18
F1.0
sg19
I0
sg20
Nsg74
F97.0
sg23
I0
sg75
g76
sg495
g496
sg497
F93.66666666666667
sbasg16
F0.1358695652173913
sg17
I1
sg18
F0.1358695652173913
sg19
I1
sg20
(F0.6666666666666666
F31425000.0
tp2507
sg22
F1.0000000000000284
sg23
I2
sg24
(lp2508
g0
(g542
g2
Ntp2509
Rp2510
(dp2511
g6
g73
sg8
(lp2512
sg11
g69
sg13
Nsg14
g72
sg19
I0
sg18
F1.0
sg22
Nsg20
Nsg23
I1
sg24
Nsg495
g496
sbag0
(g542
g2
Ntp2513
Rp2514
(dp2515
g6
g73
sg8
(lp2516
sg11
g69
sg13
Nsg14
g72
sg19
I0
sg18
F1.0
sg22
Nsg20
Nsg23
I1
sg24
Nsg495
g496
sbag2504
asg495
(lp2517
I96
aF96.33333333333334
aF96.66666666666667
asbag0
(g1
g2
Ntp2518
Rp2519
(dp2520
g6
(lp2521
I3
asg8
(F0.0
(F96.66666666666667
F97.0
F98.0
tp2522
tp2523
sg11
(lp2524
F31520000.0
aF31628750.0
aF31737500.0
asg13
F1.0
sg14
(lp2525
g2490
aNag0
(g64
g2
Ntp2526
Rp2527
(dp2528
g68
F97.66666666666667
sg11
g69
sg8
(lp2529
sg71
I107
sg13
Nsg14
g72
sg24
Nsg22
Nsg6
g73
sg18
F1.0
sg19
I0
sg20
Nsg74
F98.0
sg23
I0
sg75
g76
sg495
g496
sg497
F97.0
sbasg16
F0.16474184782608695
sg17
I1
sg18
F0.16474184782608695
sg19
I1
sg20
(F0.0
F31520000.0
tp2530
sg22
F1.0000000000000284
sg23
I2
sg24
(lp2531
g2490
ag0
(g542
g2
Ntp2532
Rp2533
(dp2534
g6
g73
sg8
(lp2535
sg11
g69
sg13
Nsg14
g72
sg19
I0
sg18
F1.0
sg22
Nsg20
Nsg23
I1
sg24
Nsg495
g496
sbag2527
asg495
(lp2536
F97.0
aF97.33333333333334
aF97.66666666666667
asbasg495
(lp2537
I96
aF97.0
asbag0
(g1
g2
Ntp2538
Rp2539
(dp2540
g6
(lp2541
I3
aI2
asg8
(F0.0
(F97.66666666666667
F98.0
F100.0
tp2542
tp2543
sg11
(lp2544
F31834999.999999996
aF32161250.000000007
asg13
F1.0
sg14
(lp2545
g2476
aNasg16
F0.00923315383536153
sg17
I1
sg18
F0.00923315383536153
sg19
I2
sg20
(F0.0
F31834999.999999996
tp2546
sg22
F2.000000000000057
sg23
I2
sg24
(lp2547
g0
(g1
g2
Ntp2548
Rp2549
(dp2550
g6
(lp2551
I3
asg8
(F0.0
(F97.66666666666667
F98.0
F100.0
tp2552
tp2553
sg11
(lp2554
F31834999.999999996
aF31943750.0
aF32052500.0
asg13
F1.0
sg14
(lp2555
g2476
aNag0
(g64
g2
Ntp2556
Rp2557
(dp2558
g68
F98.66666666666667
sg11
g69
sg8
(lp2559
sg71
I109
sg13
Nsg14
g72
sg24
Nsg22
Nsg6
g73
sg18
F1.0
sg19
I0
sg20
Nsg74
F100.0
sg23
I0
sg75
g76
sg495
g496
sg497
F98.0
sbasg16
F0.16474184782608695
sg17
I1
sg18
F0.16474184782608695
sg19
I1
sg20
(F0.0
F31834999.999999996
tp2560
sg22
F1.0000000000000284
sg23
I2
sg24
(lp2561
g2476
ag0
(g542
g2
Ntp2562
Rp2563
(dp2564
g6
g73
sg8
(lp2565
sg11
g69
sg13
Nsg14
g72
sg19
I0
sg18
F1.0
sg22
Nsg20
Nsg23
I1
sg24
Nsg495
g496
sbag2557
asg495
(lp2566
F98.0
aF98.33333333333334
aF98.66666666666667
asbag0
(g542
g2
Ntp2567
Rp2568
(dp2569
g6
g73
sg8
(lp2570
sg11
g69
sg13
Nsg14
g72
sg19
I0
sg18
F1.0
sg22
Nsg20
Nsg23
I1
sg24
Nsg495
g496
sbasg495
(lp2571
F98.0
aF99.00000000000003
asbasg495
(lp2572
I96
aF98.0
asbag0
(g1
g2
Ntp2573
Rp2574
(dp2575
g6
(lp2576
I3
aI2
aI2
asg8
(F0.0
(F98.66666666666667
F100.0
F104.66666666666667
tp2577
tp2578
sg11
(lp2579
F32422500.0
aF33027500.0
asg13
F1.0
sg14
(lp2580
g2462
aNasg16
F0.0005993412758002639
sg17
I1
sg18
F0.0005993412758002639
sg19
I3
sg20
(F0.0
F32422500.0
tp2581
sg22
F4.0
sg23
I2
sg24
(lp2582
g0
(g1
g2
Ntp2583
Rp2584
(dp2585
g6
(lp2586
I3
aI2
asg8
(F0.0
(F98.66666666666667
F100.0
F104.66666666666667
tp2587
tp2588
sg11
(lp2589
F32422500.0
aF32725000.0
asg13
F1.0
sg14
(lp2590
g2462
ag0
(g64
g2
Ntp2591
Rp2592
(dp2593
g68
F101.0
sg11
g69
sg8
(lp2594
sg71
I112
sg13
Nsg14
g72
sg24
Nsg22
Nsg6
g73
sg18
F1.0
sg19
I0
sg20
Nsg74
F101.66666666666667
sg23
I0
sg75
g76
sg495
g496
sg497
F100.66666666666667
sbasg16
F0.010693701308824103
sg17
I1
sg18
F0.010693701308824103
sg19
I2
sg20
(F0.0
F32422500.0
tp2595
sg22
F2.0
sg23
I2
sg24
(lp2596
g0
(g1
g2
Ntp2597
Rp2598
(dp2599
g6
(lp2600
I3
asg8
(F0.0
(F98.66666666666667
F100.0
F101.0
tp2601
tp2602
sg11
(lp2603
F32422500.0
aF32525000.0
aF32627500.000000004
asg13
F1.0
sg14
(lp2604
g2462
aNag0
(g64
g2
Ntp2605
Rp2606
(dp2607
g68
F100.66666666666667
sg11
g69
sg8
(lp2608
sg71
I111
sg13
Nsg14
g72
sg24
Nsg22
Nsg6
g73
sg18
F1.0
sg19
I0
sg20
Nsg74
F101.0
sg23
I0
sg75
g76
sg495
g496
sg497
F100.0
sbasg16
F0.16474184782608695
sg17
I1
sg18
F0.16474184782608695
sg19
I1
sg20
(F0.0
F32422500.0
tp2609
sg22
F1.0000000000000284
sg23
I2
sg24
(lp2610
g2462
ag0
(g542
g2
Ntp2611
Rp2612
(dp2613
g6
g73
sg8
(lp2614
sg11
g69
sg13
Nsg14
g72
sg19
I0
sg18
F1.0
sg22
Nsg20
Nsg23
I1
sg24
Nsg495
g496
sbag2606
asg495
(lp2615
F100.0
aF100.33333333333334
aF100.66666666666667
asbag0
(g1
g2
Ntp2616
Rp2617
(dp2618
g6
(lp2619
I3
asg8
(F0.0
(F100.66666666666667
F101.0
F104.66666666666667
tp2620
tp2621
sg11
(lp2622
F32725000.0
aF32833750.0
aF32942500.0
asg13
F1.0
sg14
(lp2623
g2592
aNag0
(g64
g2
Ntp2624
Rp2625
(dp2626
g68
F101.66666666666667
sg11
g69
sg8
(lp2627
sg71
I113
sg13
Nsg14
g72
sg24
Nsg22
Nsg6
g73
sg18
F1.0
sg19
I0
sg20
Nsg74
F104.66666666666667
sg23
I0
sg75
g76
sg495
g496
sg497
F101.0
sbasg16
F0.16474184782608695
sg17
I1
sg18
F0.16474184782608695
sg19
I1
sg20
(F0.0
F32725000.0
tp2628
sg22
F1.0000000000000284
sg23
I2
sg24
(lp2629
g2592
ag0
(g542
g2
Ntp2630
Rp2631
(dp2632
g6
g73
sg8
(lp2633
sg11
g69
sg13
Nsg14
g72
sg19
I0
sg18
F1.0
sg22
Nsg20
Nsg23
I1
sg24
Nsg495
g496
sbag2625
asg495
(lp2634
F101.0
aF101.33333333333334
aF101.66666666666667
asbasg495
(lp2635
F100.0
aF101.0
asbag0
(g542
g2
Ntp2636
Rp2637
(dp2638
g6
g73
sg8
(lp2639
sg11
g69
sg13
Nsg14
g72
sg19
I0
sg18
F1.0
sg22
Nsg20
Nsg23
I1
sg24
Nsg495
g496
sbasg495
(lp2640
F100.0
aF102.0
asbasg495
(lp2641
I96
aF100.0
asbag0
(g1
g2
Ntp2642
Rp2643
(dp2644
g6
(lp2645
I3
aI2
aI2
aI2
asg8
(F0.0
(F101.66666666666667
I104
F112.66666666666667
tp2646
tp2647
sg11
(lp2648
F33641250.0
aF34820000.0
asg13
F1.0
sg14
(lp2649
Nag0
(g64
g2
Ntp2650
Rp2651
(dp2652
g68
F108.0
sg11
g69
sg8
(lp2653
sg71
I121
sg13
Nsg14
g72
sg24
Nsg22
Nsg6
g73
sg18
F1.0
sg19
I0
sg20
Nsg74
F108.66666666666667
sg23
I0
sg75
g76
sg495
g496
sg497
F107.66666666666667
sbasg16
F4.4431489795837785e-11
sg17
I1
sg18
F4.4431489795837785e-11
sg19
I4
sg20
(F0.0
F33641250.0
tp2654
sg22
F8.0
sg23
I2
sg24
(lp2655
g0
(g1
g2
Ntp2656
Rp2657
(dp2658
g6
(lp2659
I3
aI2
aI2
asg8
(F0.0
(F101.66666666666667
I104
F108.0
tp2660
tp2661
sg11
(lp2662
F33641250.0
aF34235000.0
asg13
F1.0
sg14
(lp2663
Nag0
(g64
g2
Ntp2664
Rp2665
(dp2666
g68
F106.0
sg11
g69
sg8
(lp2667
sg71
I118
sg13
Nsg14
g72
sg24
Nsg22
Nsg6
g73
sg18
F1.0
sg19
I0
sg20
Nsg74
F106.66666666666667
sg23
I0
sg75
g76
sg495
g496
sg497
F105.66666666666667
sbasg16
F3.064875149868575e-05
sg17
I1
sg18
F3.064875149868575e-05
sg19
I3
sg20
(F0.0
F33641250.0
tp2668
sg22
F4.0
sg23
I2
sg24
(lp2669
g0
(g1
g2
Ntp2670
Rp2671
(dp2672
g6
(lp2673
I3
aI2
asg8
(F0.0
(F101.66666666666667
I104
F106.0
tp2674
tp2675
sg11
(lp2676
F33641250.0
aF33930000.0
asg13
F1.0
sg14
(lp2677
Nag0
(g64
g2
Ntp2678
Rp2679
(dp2680
g68
F105.0
sg11
g69
sg8
(lp2681
sg71
I116
sg13
Nsg14
g72
sg24
Nsg22
Nsg6
g73
sg18
F1.0
sg19
I0
sg20
Nsg74
F105.66666666666667
sg23
I0
sg75
g76
sg495
g496
sg497
F104.66666666666667
sbasg16
F0.008819547471195137
sg17
I1
sg18
F0.008819547471195137
sg19
I2
sg20
(F0.5
F33930000.0
tp2682
sg22
F2.0
sg23
I2
sg24
(lp2683
g0
(g1
g2
Ntp2684
Rp2685
(dp2686
g6
(lp2687
I3
asg8
(F0.0
(F101.66666666666667
I104
F105.0
tp2688
tp2689
sg11
(lp2690
NaNaF33825000.0
asg13
F1.0
sg14
(lp2691
NaNag0
(g64
g2
Ntp2692
Rp2693
(dp2694
g68
F104.66666666666667
sg11
g69
sg8
(lp2695
sg71
I115
sg13
Nsg14
g72
sg24
Nsg22
Nsg6
g73
sg18
F1.0
sg19
I0
sg20
Nsg74
F105.0
sg23
I0
sg75
g76
sg495
g496
sg497
F101.66666666666667
sbasg16
F0.1358695652173913
sg17
I1
sg18
F0.1358695652173913
sg19
I1
sg20
(F0.6666666666666666
F33825000.0
tp2696
sg22
F1.0000000000000284
sg23
I2
sg24
(lp2697
g0
(g542
g2
Ntp2698
Rp2699
(dp2700
g6
g73
sg8
(lp2701
sg11
g69
sg13
Nsg14
g72
sg19
I0
sg18
F1.0
sg22
Nsg20
Nsg23
I1
sg24
Nsg495
g496
sbag0
(g542
g2
Ntp2702
Rp2703
(dp2704
g6
g73
sg8
(lp2705
sg11
g69
sg13
Nsg14
g72
sg19
I0
sg18
F1.0
sg22
Nsg20
Nsg23
I1
sg24
Nsg495
g496
sbag2693
asg495
(lp2706
I104
aF104.33333333333334
aF104.66666666666667
asbag0
(g1
g2
Ntp2707
Rp2708
(dp2709
g6
(lp2710
I3
asg8
(F0.0
(F104.66666666666667
F105.0
F106.0
tp2711
tp2712
sg11
(lp2713
F33930000.0
aF34026250.0
aF34122500.0
asg13
F1.0
sg14
(lp2714
g2679
aNag0
(g64
g2
Ntp2715
Rp2716
(dp2717
g68
F105.66666666666667
sg11
g69
sg8
(lp2718
sg71
I117
sg13
Nsg14
g72
sg24
Nsg22
Nsg6
g73
sg18
F1.0
sg19
I0
sg20
Nsg74
F106.0
sg23
I0
sg75
g76
sg495
g496
sg497
F105.0
sbasg16
F0.16474184782608695
sg17
I1
sg18
F0.16474184782608695
sg19
I1
sg20
(F0.0
F33930000.0
tp2719
sg22
F1.0000000000000284
sg23
I2
sg24
(lp2720
g2679
ag0
(g542
g2
Ntp2721
Rp2722
(dp2723
g6
g73
sg8
(lp2724
sg11
g69
sg13
Nsg14
g72
sg19
I0
sg18
F1.0
sg22
Nsg20
Nsg23
I1
sg24
Nsg495
g496
sbag2716
asg495
(lp2725
F105.0
aF105.33333333333334
aF105.66666666666667
asbasg495
(lp2726
I104
aF105.0
asbag0
(g1
g2
Ntp2727
Rp2728
(dp2729
g6
(lp2730
I3
aI2
asg8
(F0.0
(F105.66666666666667
F106.0
F108.0
tp2731
tp2732
sg11
(lp2733
F34235000.0
aF34561250.0
asg13
F1.0
sg14
(lp2734
g2665
aNasg16
F0.008819547471195137
sg17
I1
sg18
F0.008819547471195137
sg19
I2
sg20
(F0.0
F34235000.0
tp2735
sg22
F2.0
sg23
I2
sg24
(lp2736
g0
(g1
g2
Ntp2737
Rp2738
(dp2739
g6
(lp2740
I3
asg8
(F0.0
(F105.66666666666667
F106.0
F107.66666666666667
tp2741
tp2742
sg11
(lp2743
F34235000.0
aF34343750.0
aF34452500.0
asg13
F1.0
sg14
(lp2744
g2665
aNag0
(g64
g2
Ntp2745
Rp2746
(dp2747
g68
F106.66666666666667
sg11
g69
sg8
(lp2748
sg71
I119
sg13
Nsg14
g72
sg24
Nsg22
Nsg6
g73
sg18
F1.0
sg19
I0
sg20
Nsg74
F107.66666666666667
sg23
I0
sg75
g76
sg495
g496
sg497
F106.0
sbasg16
F0.16474184782608695
sg17
I1
sg18
F0.16474184782608695
sg19
I1
sg20
(F0.0
F34235000.0
tp2749
sg22
F1.0000000000000284
sg23
I2
sg24
(lp2750
g2665
ag0
(g542
g2
Ntp2751
Rp2752
(dp2753
g6
g73
sg8
(lp2754
sg11
g69
sg13
Nsg14
g72
sg19
I0
sg18
F1.0
sg22
Nsg20
Nsg23
I1
sg24
Nsg495
g496
sbag2746
asg495
(lp2755
F106.0
aF106.33333333333334
aF106.66666666666667
asbag0
(g1
g2
Ntp2756
Rp2757
(dp2758
g6
(lp2759
I3
asg8
(F0.0
(F106.66666666666667
I107
F108.0
tp2760
tp2761
sg11
(lp2762
NaNaF34712500.0
asg13
F1.0
sg14
(lp2763
NaNag0
(g64
g2
Ntp2764
Rp2765
(dp2766
g68
F107.66666666666667
sg11
g69
sg8
(lp2767
sg71
I120
sg13
Nsg14
g72
sg24
Nsg22
Nsg6
g73
sg18
F1.0
sg19
I0
sg20
Nsg74
F108.0
sg23
I0
sg75
g76
sg495
g496
sg497
F106.66666666666667
sbasg16
F0.1358695652173913
sg17
I1
sg18
F0.1358695652173913
sg19
I1
sg20
(F0.6666666666666666
F34712500.0
tp2768
sg22
F1.0000000000000284
sg23
I2
sg24
(lp2769
g0
(g542
g2
Ntp2770
Rp2771
(dp2772
g6
g73
sg8
(lp2773
sg11
g69
sg13
Nsg14
g72
sg19
I0
sg18
F1.0
sg22
Nsg20
Nsg23
I1
sg24
Nsg495
g496
sbag0
(g542
g2
Ntp2774
Rp2775
(dp2776
g6
g73
sg8
(lp2777
sg11
g69
sg13
Nsg14
g72
sg19
I0
sg18
F1.0
sg22
Nsg20
Nsg23
I1
sg24
Nsg495
g496
sbag2765
asg495
(lp2778
I107
aF107.33333333333334
aF107.66666666666667
asbasg495
(lp2779
F106.0
aI107
asbasg495
(lp2780
I104
aF106.0
asbag0
(g1
g2
Ntp2781
Rp2782
(dp2783
g6
(lp2784
I3
aI2
aI2
asg8
(F0.0
(F107.66666666666667
F108.0
F112.66666666666667
tp2785
tp2786
sg11
(lp2787
F34820000.0
aF35422500.0
asg13
F1.0
sg14
(lp2788
g2651
ag0
(g64
g2
Ntp2789
Rp2790
(dp2791
g68
F110.0
sg11
g69
sg8
(lp2792
sg71
I124
sg13
Nsg14
g72
sg24
Nsg22
Nsg6
g73
sg18
F1.0
sg19
I0
sg20
Nsg74
F110.33333333333333
sg23
I0
sg75
g76
sg495
g496
sg497
F109.33333333333333
sbasg16
F3.6792381858033e-06
sg17
I1
sg18
F3.6792381858033e-06
sg19
I3
sg20
(F0.0
F34820000.0
tp2793
sg22
F4.0
sg23
I2
sg24
(lp2794
g0
(g1
g2
Ntp2795
Rp2796
(dp2797
g6
(lp2798
I3
asg8
(F0.0
(F107.66666666666667
F108.0
F110.0
tp2799
tp2800
sg11
(lp2801
F34820000.0
aF35017500.0
aF35202500.0
asg13
F1.0
sg14
(lp2802
g2651
ag0
(g64
g2
Ntp2803
Rp2804
(dp2805
g68
F108.66666666666667
sg11
g69
sg8
(lp2806
sg71
I122
sg13
Nsg14
g72
sg24
Nsg22
Nsg6
g73
sg18
F1.0
sg19
I0
sg20
Nsg74
F109.33333333333333
sg23
I0
sg75
g76
sg495
g496
sg497
F108.0
sbag0
(g64
g2
Ntp2807
Rp2808
(dp2809
g68
F109.33333333333333
sg11
g69
sg8
(lp2810
sg71
I123
sg13
Nsg14
g72
sg24
Nsg22
Nsg6
g73
sg18
F1.0
sg19
I0
sg20
Nsg74
F110.0
sg23
I0
sg75
g76
sg495
g496
sg497
F108.66666666666667
sbasg16
F0.012907608695652174
sg17
I1
sg18
F0.012907608695652174
sg19
I1
sg20
(F0.0
F34820000.0
tp2811
sg22
F2.000000000000014
sg23
I2
sg24
(lp2812
g2651
ag2804
ag2808
asg495
(lp2813
F108.0
aF108.66666666666667
aF109.33333333333333
asbag0
(g1
g2
Ntp2814
Rp2815
(dp2816
g6
(lp2817
I3
aI2
asg8
(F0.0
(F109.33333333333333
F110.0
F112.66666666666667
tp2818
tp2819
sg11
(lp2820
F35422500.0
aF35722500.0
asg13
F1.0
sg14
(lp2821
g2790
aNasg16
F0.000723422362358223
sg17
I1
sg18
F0.000723422362358223
sg19
I2
sg20
(F0.0
F35422500.0
tp2822
sg22
F1.9999999999999716
sg23
I2
sg24
(lp2823
g0
(g1
g2
Ntp2824
Rp2825
(dp2826
g6
(lp2827
I3
asg8
(F0.0
(F109.33333333333333
F110.0
F112.66666666666667
tp2828
tp2829
sg11
(lp2830
F35422500.0
aF35522500.0
aF35612500.0
asg13
F1.0
sg14
(lp2831
g2790
ag0
(g64
g2
Ntp2832
Rp2833
(dp2834
g68
F110.33333333333333
sg11
g69
sg8
(lp2835
sg71
I125
sg13
Nsg14
g72
sg24
Nsg22
Nsg6
g73
sg18
F1.0
sg19
I0
sg20
Nsg74
F110.66666666666667
sg23
I0
sg75
g76
sg495
g496
sg497
F110.0
sbag0
(g64
g2
Ntp2836
Rp2837
(dp2838
g68
F110.66666666666667
sg11
g69
sg8
(lp2839
sg71
I126
sg13
Nsg14
g72
sg24
Nsg22
Nsg6
g73
sg18
F1.0
sg19
I0
sg20
Nsg74
F112.66666666666667
sg23
I0
sg75
g76
sg495
g496
sg497
F110.33333333333333
sbasg16
F0.012907608695652174
sg17
I1
sg18
F0.012907608695652174
sg19
I1
sg20
(F0.0
F35422500.0
tp2840
sg22
F0.9999999999999858
sg23
I2
sg24
(lp2841
g2790
ag2833
ag2837
asg495
(lp2842
F110.0
aF110.33333333333333
aF110.66666666666667
asbag0
(g542
g2
Ntp2843
Rp2844
(dp2845
g6
g73
sg8
(lp2846
sg11
g69
sg13
Nsg14
g72
sg19
I0
sg18
F1.0
sg22
Nsg20
Nsg23
I1
sg24
Nsg495
g496
sbasg495
(lp2847
F110.0
aF110.99999999999999
asbasg495
(lp2848
F108.0
aF110.0
asbasg495
(lp2849
I104
aF108.0
asbasg495
(lp2850
I96
aI104
asbag0
(g1
g2
Ntp2851
Rp2852
(dp2853
g6
(lp2854
I3
aI2
aI2
aI2
aI2
asg8
(F0.0
(F110.66666666666667
I112
F260.0
tp2855
tp2856
sg11
(lp2857
F36040000.0
aF38420000.0
asg13
F1.0
sg14
(lp2858
NaNasg16
F3.39151137100013e-11
sg17
I1
sg18
F3.39151137100013e-11
sg19
I5
sg20
(F0.0
F36040000.0
tp2859
sg22
F16.0
sg23
I2
sg24
(lp2860
g0
(g1
g2
Ntp2861
Rp2862
(dp2863
g6
(lp2864
I3
aI2
aI2
aI2
asg8
(F0.0
(F110.66666666666667
I112
F260.0
tp2865
tp2866
sg11
(lp2867
F36040000.0
aF37230000.0
asg13
F1.0
sg14
(lp2868
Nag0
(g64
g2
Ntp2869
Rp2870
(dp2871
g68
F116.0
sg11
g69
sg8
(lp2872
sg71
I133
sg13
Nsg14
g72
sg24
Nsg22
Nsg6
g73
sg18
F1.0
sg19
I0
sg20
Nsg74
F116.66666666666667
sg23
I0
sg75
g76
sg495
g496
sg497
F114.66666666666667
sbasg16
F6.051278470439021e-10
sg17
I1
sg18
F6.051278470439021e-10
sg19
I4
sg20
(F0.0
F36040000.0
tp2873
sg22
F8.0
sg23
I2
sg24
(lp2874
g0
(g1
g2
Ntp2875
Rp2876
(dp2877
g6
(lp2878
I3
aI2
aI2
asg8
(F0.0
(F110.66666666666667
I112
F116.0
tp2879
tp2880
sg11
(lp2881
F36040000.0
aF36620000.0
asg13
F1.0
sg14
(lp2882
Nag0
(g64
g2
Ntp2883
Rp2884
(dp2885
g68
F114.0
sg11
g69
sg8
(lp2886
sg71
I131
sg13
Nsg14
g72
sg24
Nsg22
Nsg6
g73
sg18
F1.0
sg19
I0
sg20
Nsg74
F114.66666666666667
sg23
I0
sg75
g76
sg495
g496
sg497
F113.66666666666667
sbasg16
F3.2086072258624124e-05
sg17
I1
sg18
F3.2086072258624124e-05
sg19
I3
sg20
(F0.0
F36040000.0
tp2887
sg22
F4.0
sg23
I2
sg24
(lp2888
g0
(g1
g2
Ntp2889
Rp2890
(dp2891
g6
(lp2892
I3
aI2
asg8
(F0.0
(F110.66666666666667
I112
F114.0
tp2893
tp2894
sg11
(lp2895
F36040000.0
aF36332500.0
asg13
F1.0
sg14
(lp2896
Nag0
(g64
g2
Ntp2897
Rp2898
(dp2899
g68
F113.0
sg11
g69
sg8
(lp2900
sg71
I129
sg13
Nsg14
g72
sg24
Nsg22
Nsg6
g73
sg18
F1.0
sg19
I0
sg20
Nsg74
F113.66666666666667
sg23
I0
sg75
g76
sg495
g496
sg497
F112.66666666666667
sbasg16
F0.008819547471195137
sg17
I1
sg18
F0.008819547471195137
sg19
I2
sg20
(F0.5
F36332500.0
tp2901
sg22
F2.0
sg23
I2
sg24
(lp2902
g0
(g1
g2
Ntp2903
Rp2904
(dp2905
g6
(lp2906
I3
asg8
(F0.0
(F110.66666666666667
I112
F113.0
tp2907
tp2908
sg11
(lp2909
NaNaF36230000.0
asg13
F1.0
sg14
(lp2910
NaNag0
(g64
g2
Ntp2911
Rp2912
(dp2913
g68
F112.66666666666667
sg11
g69
sg8
(lp2914
sg71
I128
sg13
Nsg14
g72
sg24
Nsg22
Nsg6
g73
sg18
F1.0
sg19
I0
sg20
Nsg74
F113.0
sg23
I0
sg75
g76
sg495
g496
sg497
F110.66666666666667
sbasg16
F0.1358695652173913
sg17
I1
sg18
F0.1358695652173913
sg19
I1
sg20
(F0.6666666666666666
F36230000.0
tp2915
sg22
F1.0000000000000284
sg23
I2
sg24
(lp2916
g0
(g542
g2
Ntp2917
Rp2918
(dp2919
g6
g73
sg8
(lp2920
sg11
g69
sg13
Nsg14
g72
sg19
I0
sg18
F1.0
sg22
Nsg20
Nsg23
I1
sg24
Nsg495
g496
sbag0
(g542
g2
Ntp2921
Rp2922
(dp2923
g6
g73
sg8
(lp2924
sg11
g69
sg13
Nsg14
g72
sg19
I0
sg18
F1.0
sg22
Nsg20
Nsg23
I1
sg24
Nsg495
g496
sbag2912
asg495
(lp2925
I112
aF112.33333333333334
aF112.66666666666667
asbag0
(g1
g2
Ntp2926
Rp2927
(dp2928
g6
(lp2929
I3
asg8
(F0.0
(F112.66666666666667
F113.0
F114.0
tp2930
tp2931
sg11
(lp2932
F36332500.0
aF36430000.0
aF36527500.0
asg13
F1.0
sg14
(lp2933
g2898
aNag0
(g64
g2
Ntp2934
Rp2935
(dp2936
g68
F113.66666666666667
sg11
g69
sg8
(lp2937
sg71
I130
sg13
Nsg14
g72
sg24
Nsg22
Nsg6
g73
sg18
F1.0
sg19
I0
sg20
Nsg74
F114.0
sg23
I0
sg75
g76
sg495
g496
sg497
F113.0
sbasg16
F0.16474184782608695
sg17
I1
sg18
F0.16474184782608695
sg19
I1
sg20
(F0.0
F36332500.0
tp2938
sg22
F1.0000000000000284
sg23
I2
sg24
(lp2939
g2898
ag0
(g542
g2
Ntp2940
Rp2941
(dp2942
g6
g73
sg8
(lp2943
sg11
g69
sg13
Nsg14
g72
sg19
I0
sg18
F1.0
sg22
Nsg20
Nsg23
I1
sg24
Nsg495
g496
sbag2935
asg495
(lp2944
F113.0
aF113.33333333333334
aF113.66666666666667
asbasg495
(lp2945
I112
aF113.0
asbag0
(g1
g2
Ntp2946
Rp2947
(dp2948
g6
(lp2949
I3
aI2
asg8
(F0.0
(F113.66666666666667
F114.0
F116.0
tp2950
tp2951
sg11
(lp2952
F36620000.0
aF36957500.0
asg13
F1.0
sg14
(lp2953
g2884
aNasg16
F0.00923315383536153
sg17
I1
sg18
F0.00923315383536153
sg19
I2
sg20
(F0.0
F36620000.0
tp2954
sg22
F2.000000000000057
sg23
I2
sg24
(lp2955
g0
(g1
g2
Ntp2956
Rp2957
(dp2958
g6
(lp2959
I3
asg8
(F0.0
(F113.66666666666667
F114.0
F116.0
tp2960
tp2961
sg11
(lp2962
F36620000.0
aF36732500.0
aF36845000.0
asg13
F1.0
sg14
(lp2963
g2884
aNag0
(g64
g2
Ntp2964
Rp2965
(dp2966
g68
F114.66666666666667
sg11
g69
sg8
(lp2967
sg71
I132
sg13
Nsg14
g72
sg24
Nsg22
Nsg6
g73
sg18
F1.0
sg19
I0
sg20
Nsg74
F116.0
sg23
I0
sg75
g76
sg495
g496
sg497
F114.0
sbasg16
F0.16474184782608695
sg17
I1
sg18
F0.16474184782608695
sg19
I1
sg20
(F0.0
F36620000.0
tp2968
sg22
F1.0000000000000284
sg23
I2
sg24
(lp2969
g2884
ag0
(g542
g2
Ntp2970
Rp2971
(dp2972
g6
g73
sg8
(lp2973
sg11
g69
sg13
Nsg14
g72
sg19
I0
sg18
F1.0
sg22
Nsg20
Nsg23
I1
sg24
Nsg495
g496
sbag2965
asg495
(lp2974
F114.0
aF114.33333333333334
aF114.66666666666667
asbag0
(g542
g2
Ntp2975
Rp2976
(dp2977
g6
g73
sg8
(lp2978
sg11
g69
sg13
Nsg14
g72
sg19
I0
sg18
F1.0
sg22
Nsg20
Nsg23
I1
sg24
Nsg495
g496
sbasg495
(lp2979
F114.0
aF115.00000000000003
asbasg495
(lp2980
I112
aF114.0
asbag0
(g1
g2
Ntp2981
Rp2982
(dp2983
g6
(lp2984
I3
aI2
aI2
asg8
(F0.0
(F114.66666666666667
F116.0
F260.0
tp2985
tp2986
sg11
(lp2987
F37230000.0
aF37786250.0
asg13
F1.0
sg14
(lp2988
g2870
aNasg16
F4.786415521549755e-05
sg17
I1
sg18
F4.786415521549755e-05
sg19
I3
sg20
(F0.0
F37230000.0
tp2989
sg22
F3.999999999999943
sg23
I2
sg24
(lp2990
g0
(g1
g2
Ntp2991
Rp2992
(dp2993
g6
(lp2994
I3
aI2
asg8
(F0.0
(F114.66666666666667
F116.0
F119.0
tp2995
tp2996
sg11
(lp2997
F37230000.0
aF37532500.0
asg13
F1.0
sg14
(lp2998
g2870
ag0
(g64
g2
Ntp2999
Rp3000
(dp3001
g68
F117.0
sg11
g69
sg8
(lp3002
sg71
I135
sg13
Nsg14
g72
sg24
Nsg22
Nsg6
g73
sg18
F1.0
sg19
I0
sg20
Nsg74
F117.66666666666667
sg23
I0
sg75
g76
sg495
g496
sg497
F116.66666666666667
sbasg16
F0.010693701308824103
sg17
I1
sg18
F0.010693701308824103
sg19
I2
sg20
(F0.0
F37230000.0
tp3003
sg22
F2.0
sg23
I2
sg24
(lp3004
g0
(g1
g2
Ntp3005
Rp3006
(dp3007
g6
(lp3008
I3
asg8
(F0.0
(F114.66666666666667
F116.0
F117.0
tp3009
tp3010
sg11
(lp3011
F37230000.0
aF37328750.0
aF37427500.0
asg13
F1.0
sg14
(lp3012
g2870
aNag0
(g64
g2
Ntp3013
Rp3014
(dp3015
g68
F116.66666666666667
sg11
g69
sg8
(lp3016
sg71
I134
sg13
Nsg14
g72
sg24
Nsg22
Nsg6
g73
sg18
F1.0
sg19
I0
sg20
Nsg74
F117.0
sg23
I0
sg75
g76
sg495
g496
sg497
F116.0
sbasg16
F0.16474184782608695
sg17
I1
sg18
F0.16474184782608695
sg19
I1
sg20
(F0.0
F37230000.0
tp3017
sg22
F1.0000000000000284
sg23
I2
sg24
(lp3018
g2870
ag0
(g542
g2
Ntp3019
Rp3020
(dp3021
g6
g73
sg8
(lp3022
sg11
g69
sg13
Nsg14
g72
sg19
I0
sg18
F1.0
sg22
Nsg20
Nsg23
I1
sg24
Nsg495
g496
sbag3014
asg495
(lp3023
F116.0
aF116.33333333333334
aF116.66666666666667
asbag0
(g1
g2
Ntp3024
Rp3025
(dp3026
g6
(lp3027
I3
asg8
(F0.0
(F116.66666666666667
F117.0
F119.0
tp3028
tp3029
sg11
(lp3030
F37532500.0
aF37623750.0
aF37715000.0
asg13
F1.0
sg14
(lp3031
g3000
aNag0
(g64
g2
Ntp3032
Rp3033
(dp3034
g68
F117.66666666666667
sg11
g69
sg8
(lp3035
sg71
I136
sg13
Nsg14
g72
sg24
Nsg22
Nsg6
g73
sg18
F1.0
sg19
I0
sg20
Nsg74
F119.0
sg23
I0
sg75
g76
sg495
g496
sg497
F117.0
sbasg16
F0.16474184782608695
sg17
I1
sg18
F0.16474184782608695
sg19
I1
sg20
(F0.0
F37532500.0
tp3036
sg22
F1.0000000000000284
sg23
I2
sg24
(lp3037
g3000
ag0
(g542
g2
Ntp3038
Rp3039
(dp3040
g6
g73
sg8
(lp3041
sg11
g69
sg13
Nsg14
g72
sg19
I0
sg18
F1.0
sg22
Nsg20
Nsg23
I1
sg24
Nsg495
g496
sbag3033
asg495
(lp3042
F117.0
aF117.33333333333334
aF117.66666666666667
asbasg495
(lp3043
F116.0
aF117.0
asbag0
(g1
g2
Ntp3044
Rp3045
(dp3046
g6
(lp3047
I3
aI2
asg8
(F0.5
(F117.66666666666667
F119.0
F260.0
tp3048
tp3049
sg11
(lp3050
F37786250.0
aF38112500.0
asg13
F1.0
sg14
(lp3051
Nag0
(g64
g2
Ntp3052
Rp3053
(dp3054
g68
F119.0
sg11
g69
sg8
(lp3055
sg71
I137
sg13
Nsg14
g72
sg24
Nsg22
Nsg6
g73
sg18
F1.0
sg19
I0
sg20
Nsg74
F119.66666666666667
sg23
I0
sg75
g76
sg495
g496
sg497
F117.66666666666667
sbasg16
F0.011359577142899337
sg17
I1
sg18
F0.011359577142899337
sg19
I2
sg20
(F0.5
F38112500.0
tp3056
sg22
F2.000000000000057
sg23
I2
sg24
(lp3057
g0
(g542
g2
Ntp3058
Rp3059
(dp3060
g6
g73
sg8
(lp3061
sg11
g69
sg13
Nsg14
g72
sg19
I0
sg18
F1.0
sg22
Nsg20
Nsg23
I1
sg24
Nsg495
g496
sbag0
(g1
g2
Ntp3062
Rp3063
(dp3064
g6
(lp3065
I3
asg8
(F0.0
(F117.66666666666667
F119.0
F260.0
tp3066
tp3067
sg11
(lp3068
F38112500.0
aF38221250.0
aF38330000.0
asg13
F1.0
sg14
(lp3069
g3053
aNag0
(g64
g2
Ntp3070
Rp3071
(dp3072
g68
F119.66666666666667
sg11
g69
sg8
(lp3073
sg71
I138
sg13
Nsg14
g72
sg24
Nsg22
Nsg6
g73
sg18
F1.0
sg19
I0
sg20
Nsg74
F260.0
sg23
I0
sg75
g76
sg495
g496
sg497
F119.0
sbasg16
F0.16474184782608695
sg17
I1
sg18
F0.16474184782608695
sg19
I1
sg20
(F0.0
F38112500.0
tp3074
sg22
F1.0000000000000284
sg23
I2
sg24
(lp3075
g3053
ag0
(g542
g2
Ntp3076
Rp3077
(dp3078
g6
g73
sg8
(lp3079
sg11
g69
sg13
Nsg14
g72
sg19
I0
sg18
F1.0
sg22
Nsg20
Nsg23
I1
sg24
Nsg495
g496
sbag3071
asg495
(lp3080
F119.0
aF119.33333333333334
aF119.66666666666667
asbasg495
(lp3081
F117.99999999999997
aF119.0
asbasg495
(lp3082
F116.0
aF117.99999999999997
asbasg495
(lp3083
I112
aF116.0
asbag0
(g542
g2
Ntp3084
Rp3085
(dp3086
g6
g73
sg8
(lp3087
sg11
g69
sg13
Nsg14
g72
sg19
I0
sg18
F1.0
sg22
Nsg20
Nsg23
I1
sg24
Nsg495
g496
sbasg495
(lp3088
I112
aF120.0
asbasg495
(lp3089
I96
aI112
asbasg495
(lp3090
I64
aI96
asbasg495
(lp3091
I0
aI64
asb.