ccopy_reg
_reconstructor
p0
(cjazzr.rhythm.symbol
Symbol
p1
c__builtin__
object
p2
Ntp3
Rp4
(dp5
S'length'
p6
F32.0
sS'depth'
p7
I6
sS'type'
p8
I2
sS'children'
p9
(lp10
g0
(g1
g2
Ntp11
Rp12
(dp13
g6
F16.0
sg7
I5
sg8
I2
sg9
(lp14
g0
(g1
g2
Ntp15
Rp16
(dp17
g6
F8.0
sg7
I3
sg8
I2
sg9
(lp18
g0
(cjazzr.rhythm.symbol
Onset
p19
g2
Ntp20
Rp21
(dp22
S'on'
p23
F3.5
sS'features'
p24
(lp25
sg9
Nsg6
NsS'next'
p26
F8.5
sg7
I0
sg8
I0
sS'annotation'
p27
I1
sS'previous'
p28
I0
sbag0
(g1
g2
Ntp29
Rp30
(dp31
g6
F4.0
sg7
I2
sg8
I2
sg9
(lp32
g0
(g1
g2
Ntp33
Rp34
(dp35
g6
Nsg7
I1
sg8
I2
sg9
(lp36
g0
(cjazzr.rhythm.symbol
Tie
p37
g2
Ntp38
Rp39
(dp40
g6
Nsg7
I0
sg8
I1
sg9
Nsg24
(lp41
sbag0
(g19
g2
Ntp42
Rp43
(dp44
g23
F8.5
sg24
(lp45
sg9
Nsg6
Nsg26
F9.5
sg7
I0
sg8
I0
sg27
I2
sg28
F3.5
sbasg24
(F0.5
(F3.5
F8.5
F9.5
tp46
F0.5
tp47
sbag0
(g1
g2
Ntp48
Rp49
(dp50
g6
F2.0
sg7
I1
sg8
I2
sg9
(lp51
g0
(g19
g2
Ntp52
Rp53
(dp54
g23
F9.5
sg24
(lp55
sg9
Nsg6
Nsg26
F10.5
sg7
I0
sg8
I0
sg27
I3
sg28
F8.5
sbag0
(g19
g2
Ntp56
Rp57
(dp58
g23
F10.5
sg24
(lp59
sg9
Nsg6
Nsg26
F11.5
sg7
I0
sg8
I0
sg27
I4
sg28
F9.5
sbasg24
(F0.0
(F8.5
F9.5
F11.5
tp60
F1.0
tp61
sbasg24
(F0.25
(F3.5
F8.5
F11.5
tp62
F0.75
tp63
sbasg24
(F0.0
(I0
F3.5
F11.5
tp64
F1.0
tp65
sbag0
(g1
g2
Ntp66
Rp67
(dp68
g6
F8.0
sg7
I4
sg8
I2
sg9
(lp69
g0
(g1
g2
Ntp70
Rp71
(dp72
g6
F4.0
sg7
I3
sg8
I2
sg9
(lp73
g0
(g1
g2
Ntp74
Rp75
(dp76
g6
F2.0
sg7
I2
sg8
I2
sg9
(lp77
g0
(g1
g2
Ntp78
Rp79
(dp80
g6
F1.0
sg7
I1
sg8
I2
sg9
(lp81
g0
(g19
g2
Ntp82
Rp83
(dp84
g23
F11.5
sg24
(lp85
sg9
Nsg6
Nsg26
F12.0
sg7
I0
sg8
I0
sg27
I5
sg28
F10.5
sbag0
(g19
g2
Ntp86
Rp87
(dp88
g23
F12.0
sg24
(lp89
sg9
Nsg6
Nsg26
F19.5
sg7
I0
sg8
I0
sg27
I6
sg28
F11.5
sbasg24
(F0.0
(F10.5
F11.5
F19.5
tp90
F1.0
tp91
sbag0
(g37
g2
Ntp92
Rp93
(dp94
g6
Nsg7
I0
sg8
I1
sg9
Nsg24
(lp95
sbasg24
(F0.0
(F10.5
F11.5
F19.5
tp96
F1.0
tp97
sbag0
(g37
g2
Ntp98
Rp99
(dp100
g6
Nsg7
I0
sg8
I1
sg9
Nsg24
(lp101
sbasg24
(F0.0
(F10.5
F11.5
F19.5
tp102
F1.0
tp103
sbag0
(g37
g2
Ntp104
Rp105
(dp106
g6
Nsg7
I0
sg8
I1
sg9
Nsg24
(lp107
sbasg24
(F0.0
(F10.5
F11.5
F19.5
tp108
F1.0
tp109
sbasg24
(F0.0
(I0
F3.5
F19.5
tp110
F1.0
tp111
sbag0
(g1
g2
Ntp112
Rp113
(dp114
g6
F16.0
sg7
I5
sg8
I2
sg9
(lp115
g0
(g1
g2
Ntp116
Rp117
(dp118
g6
F8.0
sg7
I4
sg8
I2
sg9
(lp119
g0
(g19
g2
Ntp120
Rp121
(dp122
g23
F19.5
sg24
(lp123
sg9
Nsg6
Nsg26
F23.5
sg7
I0
sg8
I0
sg27
I7
sg28
F12.0
sbag0
(g1
g2
Ntp124
Rp125
(dp126
g6
F4.0
sg7
I3
sg8
I2
sg9
(lp127
g0
(g1
g2
Ntp128
Rp129
(dp130
g6
F2.0
sg7
I2
sg8
I2
sg9
(lp131
g0
(g19
g2
Ntp132
Rp133
(dp134
g23
F23.5
sg24
(lp135
sg9
Nsg6
Nsg26
F24.5
sg7
I0
sg8
I0
sg27
I8
sg28
F19.5
sbag0
(g1
g2
Ntp136
Rp137
(dp138
g6
F1.0
sg7
I1
sg8
I2
sg9
(lp139
g0
(g19
g2
Ntp140
Rp141
(dp142
g23
F24.5
sg24
(lp143
sg9
Nsg6
Nsg26
F25.0
sg7
I0
sg8
I0
sg27
I9
sg28
F23.5
sbag0
(g19
g2
Ntp144
Rp145
(dp146
g23
F25.0
sg24
(lp147
sg9
Nsg6
Nsg26
F25.5
sg7
I0
sg8
I0
sg27
I10
sg28
F24.5
sbasg24
(F0.0
(F23.5
F24.5
F25.5
tp148
F1.0
tp149
sbasg24
(F0.0
(F19.5
F23.5
F25.5
tp150
F1.0
tp151
sbag0
(g1
g2
Ntp152
Rp153
(dp154
g6
F2.0
sg7
I2
sg8
I2
sg9
(lp155
g0
(g1
g2
Ntp156
Rp157
(dp158
g6
F1.0
sg7
I1
sg8
I2
sg9
(lp159
g0
(g19
g2
Ntp160
Rp161
(dp162
g23
F25.5
sg24
(lp163
sg9
Nsg6
Nsg26
F26.0
sg7
I0
sg8
I0
sg27
I11
sg28
F25.0
sbag0
(g19
g2
Ntp164
Rp165
(dp166
g23
F26.0
sg24
(lp167
sg9
Nsg6
Nsg26
F26.5
sg7
I0
sg8
I0
sg27
I12
sg28
F25.5
sbasg24
(F0.0
(F25.0
F25.5
F26.5
tp168
F1.0
tp169
sbag0
(g1
g2
Ntp170
Rp171
(dp172
g6
F1.0
sg7
I1
sg8
I2
sg9
(lp173
g0
(g19
g2
Ntp174
Rp175
(dp176
g23
F26.5
sg24
(lp177
sg9
Nsg6
Nsg26
F27.0
sg7
I0
sg8
I0
sg27
I13
sg28
F26.0
sbag0
(g19
g2
Ntp178
Rp179
(dp180
g23
F27.0
sg24
(lp181
sg9
Nsg6
Nsg26
F27.5
sg7
I0
sg8
I0
sg27
I14
sg28
F26.5
sbasg24
(F0.0
(F26.0
F26.5
F27.5
tp182
F1.0
tp183
sbasg24
(F0.0
(F25.0
F25.5
F27.5
tp184
F1.0
tp185
sbasg24
(F0.0
(F19.5
F23.5
F27.5
tp186
F1.0
tp187
sbasg24
(F0.0
(F12.0
F19.5
F27.5
tp188
F1.0
tp189
sbag0
(g1
g2
Ntp190
Rp191
(dp192
g6
F8.0
sg7
I4
sg8
I2
sg9
(lp193
g0
(g1
g2
Ntp194
Rp195
(dp196
g6
F4.0
sg7
I3
sg8
I2
sg9
(lp197
g0
(g1
g2
Ntp198
Rp199
(dp200
g6
F2.0
sg7
I2
sg8
I2
sg9
(lp201
g0
(g1
g2
Ntp202
Rp203
(dp204
g6
F1.0
sg7
I1
sg8
I2
sg9
(lp205
g0
(g19
g2
Ntp206
Rp207
(dp208
g23
F27.5
sg24
(lp209
sg9
Nsg6
Nsg26
F28.0
sg7
I0
sg8
I0
sg27
I15
sg28
F27.0
sbag0
(g19
g2
Ntp210
Rp211
(dp212
g23
F28.0
sg24
(lp213
sg9
Nsg6
Nsg26
F28.5
sg7
I0
sg8
I0
sg27
I16
sg28
F27.5
sbasg24
(F0.0
(F27.0
F27.5
F28.5
tp214
F1.0
tp215
sbag0
(g19
g2
Ntp216
Rp217
(dp218
g23
F28.5
sg24
(lp219
sg9
Nsg6
Nsg26
F64.0
sg7
I0
sg8
I0
sg27
I17
sg28
F28.0
sbasg24
(F0.0
(F27.0
F27.5
F64.0
tp220
F1.0
tp221
sbag0
(g37
g2
Ntp222
Rp223
(dp224
g6
Nsg7
I0
sg8
I1
sg9
Nsg24
(lp225
sbasg24
(F0.0
(F27.0
F27.5
F64.0
tp226
F1.0
tp227
sbag0
(g37
g2
Ntp228
Rp229
(dp230
g6
Nsg7
I0
sg8
I1
sg9
Nsg24
(lp231
sbasg24
(F0.0
(F27.0
F27.5
F64.0
tp232
F1.0
tp233
sbasg24
(F0.0
(F12.0
F19.5
F64.0
tp234
F1.0
tp235
sbasg24
(F0.0
(I0
F3.5
F64.0
tp236
F1.0
tp237
sb.