ccopy_reg
_reconstructor
p0
(cjazzr.rhythm.symbol
Symbol
p1
c__builtin__
object
p2
Ntp3
Rp4
(dp5
S'length'
p6
F256.0
sS'depth'
p7
I9
sS'type'
p8
I2
sS'children'
p9
(lp10
g0
(g1
g2
Ntp11
Rp12
(dp13
g6
F128.0
sg7
I8
sg8
I2
sg9
(lp14
g0
(g1
g2
Ntp15
Rp16
(dp17
g6
F64.0
sg7
I7
sg8
I2
sg9
(lp18
g0
(g1
g2
Ntp19
Rp20
(dp21
g6
F32.0
sg7
I5
sg8
I2
sg9
(lp22
g0
(g1
g2
Ntp23
Rp24
(dp25
g6
F16.0
sg7
I4
sg8
I2
sg9
(lp26
g0
(g1
g2
Ntp27
Rp28
(dp29
g6
F8.0
sg7
I3
sg8
I2
sg9
(lp30
g0
(cjazzr.rhythm.symbol
Onset
p31
g2
Ntp32
Rp33
(dp34
S'on'
p35
F0.0
sS'features'
p36
(lp37
sg9
Nsg6
NsS'next'
p38
F4.0
sg7
I0
sg8
I0
sS'annotation'
p39
I0
sS'previous'
p40
I0
sbag0
(g1
g2
Ntp41
Rp42
(dp43
g6
F4.0
sg7
I2
sg8
I2
sg9
(lp44
g0
(g31
g2
Ntp45
Rp46
(dp47
g35
F4.0
sg36
(lp48
sg9
Nsg6
Nsg38
F7.0
sg7
I0
sg8
I0
sg39
I1
sg40
F0.0
sbag0
(g1
g2
Ntp49
Rp50
(dp51
g6
Nsg7
I1
sg8
I2
sg9
(lp52
g0
(cjazzr.rhythm.symbol
Tie
p53
g2
Ntp54
Rp55
(dp56
g6
Nsg7
I0
sg8
I1
sg9
Nsg36
(lp57
sbag0
(g31
g2
Ntp58
Rp59
(dp60
g35
F7.0
sg36
(lp61
sg9
Nsg6
Nsg38
F8.0
sg7
I0
sg8
I0
sg39
I2
sg40
F4.0
sbasg36
(F0.5
(F4.0
F7.0
F8.0
tp62
F0.5
tp63
sbasg36
(F0.0
(F0.0
F4.0
F8.0
tp64
F1.0
tp65
sbasg36
(F0.0
(I0
F0.0
F8.0
tp66
F1.0
tp67
sbag0
(g1
g2
Ntp68
Rp69
(dp70
g6
F8.0
sg7
I3
sg8
I2
sg9
(lp71
g0
(g1
g2
Ntp72
Rp73
(dp74
g6
F4.0
sg7
I2
sg8
I2
sg9
(lp75
g0
(g1
g2
Ntp76
Rp77
(dp78
g6
F2.0
sg7
I1
sg8
I2
sg9
(lp79
g0
(g31
g2
Ntp80
Rp81
(dp82
g35
F8.0
sg36
(lp83
sg9
Nsg6
Nsg38
F9.0
sg7
I0
sg8
I0
sg39
I3
sg40
F7.0
sbag0
(g31
g2
Ntp84
Rp85
(dp86
g35
F9.0
sg36
(lp87
sg9
Nsg6
Nsg38
F10.0
sg7
I0
sg8
I0
sg39
I4
sg40
F8.0
sbasg36
(F0.0
(F7.0
F8.0
F10.0
tp88
F1.0
tp89
sbag0
(g1
g2
Ntp90
Rp91
(dp92
g6
F2.0
sg7
I1
sg8
I2
sg9
(lp93
g0
(g31
g2
Ntp94
Rp95
(dp96
g35
F10.0
sg36
(lp97
sg9
Nsg6
Nsg38
F11.0
sg7
I0
sg8
I0
sg39
I5
sg40
F9.0
sbag0
(g31
g2
Ntp98
Rp99
(dp100
g35
F11.0
sg36
(lp101
sg9
Nsg6
Nsg38
F12.0
sg7
I0
sg8
I0
sg39
I6
sg40
F10.0
sbasg36
(F0.0
(F9.0
F10.0
F12.0
tp102
F1.0
tp103
sbasg36
(F0.0
(F7.0
F8.0
F12.0
tp104
F1.0
tp105
sbag0
(g1
g2
Ntp106
Rp107
(dp108
g6
F4.0
sg7
I2
sg8
I2
sg9
(lp109
g0
(g1
g2
Ntp110
Rp111
(dp112
g6
F2.0
sg7
I1
sg8
I2
sg9
(lp113
g0
(g31
g2
Ntp114
Rp115
(dp116
g35
F12.0
sg36
(lp117
sg9
Nsg6
Nsg38
F13.0
sg7
I0
sg8
I0
sg39
I7
sg40
F11.0
sbag0
(g31
g2
Ntp118
Rp119
(dp120
g35
F13.0
sg36
(lp121
sg9
Nsg6
Nsg38
F15.0
sg7
I0
sg8
I0
sg39
I8
sg40
F12.0
sbasg36
(F0.0
(F11.0
F12.0
F15.0
tp122
F1.0
tp123
sbag0
(g1
g2
Ntp124
Rp125
(dp126
g6
Nsg7
I1
sg8
I2
sg9
(lp127
g0
(g53
g2
Ntp128
Rp129
(dp130
g6
Nsg7
I0
sg8
I1
sg9
Nsg36
(lp131
sbag0
(g31
g2
Ntp132
Rp133
(dp134
g35
F15.0
sg36
(lp135
sg9
Nsg6
Nsg38
F16.0
sg7
I0
sg8
I0
sg39
I9
sg40
F13.0
sbasg36
(F0.5
(F13.0
F15.0
F16.0
tp136
F0.5
tp137
sbasg36
(F0.0
(F11.0
F12.0
F16.0
tp138
F1.0
tp139
sbasg36
(F0.0
(F7.0
F8.0
F16.0
tp140
F1.0
tp141
sbasg36
(F0.0
(I0
F0.0
F16.0
tp142
F1.0
tp143
sbag0
(g1
g2
Ntp144
Rp145
(dp146
g6
F16.0
sg7
I4
sg8
I2
sg9
(lp147
g0
(g1
g2
Ntp148
Rp149
(dp150
g6
F8.0
sg7
I3
sg8
I2
sg9
(lp151
g0
(g1
g2
Ntp152
Rp153
(dp154
g6
F4.0
sg7
I2
sg8
I2
sg9
(lp155
g0
(g1
g2
Ntp156
Rp157
(dp158
g6
F2.0
sg7
I1
sg8
I2
sg9
(lp159
g0
(g31
g2
Ntp160
Rp161
(dp162
g35
F16.0
sg36
(lp163
sg9
Nsg6
Nsg38
F17.0
sg7
I0
sg8
I0
sg39
I10
sg40
F15.0
sbag0
(g31
g2
Ntp164
Rp165
(dp166
g35
F17.0
sg36
(lp167
sg9
Nsg6
Nsg38
F18.0
sg7
I0
sg8
I0
sg39
I11
sg40
F16.0
sbasg36
(F0.0
(F15.0
F16.0
F18.0
tp168
F1.0
tp169
sbag0
(g1
g2
Ntp170
Rp171
(dp172
g6
F2.0
sg7
I1
sg8
I2
sg9
(lp173
g0
(g31
g2
Ntp174
Rp175
(dp176
g35
F18.0
sg36
(lp177
sg9
Nsg6
Nsg38
F19.0
sg7
I0
sg8
I0
sg39
I12
sg40
F17.0
sbag0
(g31
g2
Ntp178
Rp179
(dp180
g35
F19.0
sg36
(lp181
sg9
Nsg6
Nsg38
F20.0
sg7
I0
sg8
I0
sg39
I13
sg40
F18.0
sbasg36
(F0.0
(F17.0
F18.0
F20.0
tp182
F1.0
tp183
sbasg36
(F0.0
(F15.0
F16.0
F20.0
tp184
F1.0
tp185
sbag0
(g1
g2
Ntp186
Rp187
(dp188
g6
F4.0
sg7
I2
sg8
I2
sg9
(lp189
g0
(g1
g2
Ntp190
Rp191
(dp192
g6
F2.0
sg7
I1
sg8
I2
sg9
(lp193
g0
(g31
g2
Ntp194
Rp195
(dp196
g35
F20.0
sg36
(lp197
sg9
Nsg6
Nsg38
F21.0
sg7
I0
sg8
I0
sg39
I14
sg40
F19.0
sbag0
(g31
g2
Ntp198
Rp199
(dp200
g35
F21.0
sg36
(lp201
sg9
Nsg6
Nsg38
F23.0
sg7
I0
sg8
I0
sg39
I15
sg40
F20.0
sbasg36
(F0.0
(F19.0
F20.0
F23.0
tp202
F1.0
tp203
sbag0
(g1
g2
Ntp204
Rp205
(dp206
g6
Nsg7
I1
sg8
I2
sg9
(lp207
g0
(g53
g2
Ntp208
Rp209
(dp210
g6
Nsg7
I0
sg8
I1
sg9
Nsg36
(lp211
sbag0
(g31
g2
Ntp212
Rp213
(dp214
g35
F23.0
sg36
(lp215
sg9
Nsg6
Nsg38
F24.0
sg7
I0
sg8
I0
sg39
I16
sg40
F21.0
sbasg36
(F0.5
(F21.0
F23.0
F24.0
tp216
F0.5
tp217
sbasg36
(F0.0
(F19.0
F20.0
F24.0
tp218
F1.0
tp219
sbasg36
(F0.0
(F15.0
F16.0
F24.0
tp220
F1.0
tp221
sbag0
(g31
g2
Ntp222
Rp223
(dp224
g35
F24.0
sg36
(lp225
sg9
Nsg6
Nsg38
F32.0
sg7
I0
sg8
I0
sg39
I17
sg40
F23.0
sbasg36
(F0.0
(F15.0
F16.0
F32.0
tp226
F1.0
tp227
sbasg36
(F0.0
(I0
F0.0
F32.0
tp228
F1.0
tp229
sbag0
(g1
g2
Ntp230
Rp231
(dp232
g6
F32.0
sg7
I6
sg8
I2
sg9
(lp233
g0
(g1
g2
Ntp234
Rp235
(dp236
g6
F16.0
sg7
I4
sg8
I2
sg9
(lp237
g0
(g1
g2
Ntp238
Rp239
(dp240
g6
F8.0
sg7
I3
sg8
I2
sg9
(lp241
g0
(g31
g2
Ntp242
Rp243
(dp244
g35
F32.0
sg36
(lp245
sg9
Nsg6
Nsg38
F36.0
sg7
I0
sg8
I0
sg39
I18
sg40
F24.0
sbag0
(g1
g2
Ntp246
Rp247
(dp248
g6
F4.0
sg7
I2
sg8
I2
sg9
(lp249
g0
(g31
g2
Ntp250
Rp251
(dp252
g35
F36.0
sg36
(lp253
sg9
Nsg6
Nsg38
F39.0
sg7
I0
sg8
I0
sg39
I19
sg40
F32.0
sbag0
(g1
g2
Ntp254
Rp255
(dp256
g6
Nsg7
I1
sg8
I2
sg9
(lp257
g0
(g53
g2
Ntp258
Rp259
(dp260
g6
Nsg7
I0
sg8
I1
sg9
Nsg36
(lp261
sbag0
(g31
g2
Ntp262
Rp263
(dp264
g35
F39.0
sg36
(lp265
sg9
Nsg6
Nsg38
F40.0
sg7
I0
sg8
I0
sg39
I20
sg40
F36.0
sbasg36
(F0.5
(F36.0
F39.0
F40.0
tp266
F0.5
tp267
sbasg36
(F0.0
(F32.0
F36.0
F40.0
tp268
F1.0
tp269
sbasg36
(F0.0
(F24.0
F32.0
F40.0
tp270
F1.0
tp271
sbag0
(g1
g2
Ntp272
Rp273
(dp274
g6
F8.0
sg7
I3
sg8
I2
sg9
(lp275
g0
(g1
g2
Ntp276
Rp277
(dp278
g6
F4.0
sg7
I2
sg8
I2
sg9
(lp279
g0
(g1
g2
Ntp280
Rp281
(dp282
g6
F2.0
sg7
I1
sg8
I2
sg9
(lp283
g0
(g31
g2
Ntp284
Rp285
(dp286
g35
F40.0
sg36
(lp287
sg9
Nsg6
Nsg38
F41.0
sg7
I0
sg8
I0
sg39
I21
sg40
F39.0
sbag0
(g31
g2
Ntp288
Rp289
(dp290
g35
F41.0
sg36
(lp291
sg9
Nsg6
Nsg38
F42.0
sg7
I0
sg8
I0
sg39
I22
sg40
F40.0
sbasg36
(F0.0
(F39.0
F40.0
F42.0
tp292
F1.0
tp293
sbag0
(g1
g2
Ntp294
Rp295
(dp296
g6
F2.0
sg7
I1
sg8
I2
sg9
(lp297
g0
(g31
g2
Ntp298
Rp299
(dp300
g35
F42.0
sg36
(lp301
sg9
Nsg6
Nsg38
F43.0
sg7
I0
sg8
I0
sg39
I23
sg40
F41.0
sbag0
(g31
g2
Ntp302
Rp303
(dp304
g35
F43.0
sg36
(lp305
sg9
Nsg6
Nsg38
F44.0
sg7
I0
sg8
I0
sg39
I24
sg40
F42.0
sbasg36
(F0.0
(F41.0
F42.0
F44.0
tp306
F1.0
tp307
sbasg36
(F0.0
(F39.0
F40.0
F44.0
tp308
F1.0
tp309
sbag0
(g1
g2
Ntp310
Rp311
(dp312
g6
F4.0
sg7
I2
sg8
I2
sg9
(lp313
g0
(g1
g2
Ntp314
Rp315
(dp316
g6
F2.0
sg7
I1
sg8
I2
sg9
(lp317
g0
(g31
g2
Ntp318
Rp319
(dp320
g35
F44.0
sg36
(lp321
sg9
Nsg6
Nsg38
F45.0
sg7
I0
sg8
I0
sg39
I25
sg40
F43.0
sbag0
(g31
g2
Ntp322
Rp323
(dp324
g35
F45.0
sg36
(lp325
sg9
Nsg6
Nsg38
F47.0
sg7
I0
sg8
I0
sg39
I26
sg40
F44.0
sbasg36
(F0.0
(F43.0
F44.0
F47.0
tp326
F1.0
tp327
sbag0
(g1
g2
Ntp328
Rp329
(dp330
g6
Nsg7
I1
sg8
I2
sg9
(lp331
g0
(g53
g2
Ntp332
Rp333
(dp334
g6
Nsg7
I0
sg8
I1
sg9
Nsg36
(lp335
sbag0
(g31
g2
Ntp336
Rp337
(dp338
g35
F47.0
sg36
(lp339
sg9
Nsg6
Nsg38
F48.0
sg7
I0
sg8
I0
sg39
I27
sg40
F45.0
sbasg36
(F0.5
(F45.0
F47.0
F48.0
tp340
F0.5
tp341
sbasg36
(F0.0
(F43.0
F44.0
F48.0
tp342
F1.0
tp343
sbasg36
(F0.0
(F39.0
F40.0
F48.0
tp344
F1.0
tp345
sbasg36
(F0.0
(F24.0
F32.0
F48.0
tp346
F1.0
tp347
sbag0
(g1
g2
Ntp348
Rp349
(dp350
g6
F16.0
sg7
I5
sg8
I2
sg9
(lp351
g0
(g1
g2
Ntp352
Rp353
(dp354
g6
F8.0
sg7
I4
sg8
I2
sg9
(lp355
g0
(g1
g2
Ntp356
Rp357
(dp358
g6
F4.0
sg7
I2
sg8
I2
sg9
(lp359
g0
(g1
g2
Ntp360
Rp361
(dp362
g6
F2.0
sg7
I1
sg8
I2
sg9
(lp363
g0
(g31
g2
Ntp364
Rp365
(dp366
g35
F48.0
sg36
(lp367
sg9
Nsg6
Nsg38
F49.0
sg7
I0
sg8
I0
sg39
I28
sg40
F47.0
sbag0
(g31
g2
Ntp368
Rp369
(dp370
g35
F49.0
sg36
(lp371
sg9
Nsg6
Nsg38
F50.0
sg7
I0
sg8
I0
sg39
I29
sg40
F48.0
sbasg36
(F0.0
(F47.0
F48.0
F50.0
tp372
F1.0
tp373
sbag0
(g1
g2
Ntp374
Rp375
(dp376
g6
F2.0
sg7
I1
sg8
I2
sg9
(lp377
g0
(g31
g2
Ntp378
Rp379
(dp380
g35
F50.0
sg36
(lp381
sg9
Nsg6
Nsg38
F51.0
sg7
I0
sg8
I0
sg39
I30
sg40
F49.0
sbag0
(g31
g2
Ntp382
Rp383
(dp384
g35
F51.0
sg36
(lp385
sg9
Nsg6
Nsg38
F52.0
sg7
I0
sg8
I0
sg39
I31
sg40
F50.0
sbasg36
(F0.0
(F49.0
F50.0
F52.0
tp386
F1.0
tp387
sbasg36
(F0.0
(F47.0
F48.0
F52.0
tp388
F1.0
tp389
sbag0
(g1
g2
Ntp390
Rp391
(dp392
g6
F4.0
sg7
I3
sg8
I2
sg9
(lp393
g0
(g1
g2
Ntp394
Rp395
(dp396
g6
F2.0
sg7
I2
sg8
I2
sg9
(lp397
g0
(g31
g2
Ntp398
Rp399
(dp400
g35
F52.0
sg36
(lp401
sg9
Nsg6
Nsg38
F53.0
sg7
I0
sg8
I0
sg39
I32
sg40
F51.0
sbag0
(g1
g2
Ntp402
Rp403
(dp404
g6
F1.0
sg7
I1
sg8
I2
sg9
(lp405
g0
(g31
g2
Ntp406
Rp407
(dp408
g35
F53.0
sg36
(lp409
sg9
Nsg6
Nsg38
F53.5
sg7
I0
sg8
I0
sg39
I33
sg40
F52.0
sbag0
(g31
g2
Ntp410
Rp411
(dp412
g35
F53.5
sg36
(lp413
sg9
Nsg6
Nsg38
F54.0
sg7
I0
sg8
I0
sg39
I34
sg40
F53.0
sbasg36
(F0.0
(F52.0
F53.0
F54.0
tp414
F1.0
tp415
sbasg36
(F0.0
(F51.0
F52.0
F54.0
tp416
F1.0
tp417
sbag0
(g1
g2
Ntp418
Rp419
(dp420
g6
F2.0
sg7
I1
sg8
I2
sg9
(lp421
g0
(g31
g2
Ntp422
Rp423
(dp424
g35
F54.0
sg36
(lp425
sg9
Nsg6
Nsg38
F55.0
sg7
I0
sg8
I0
sg39
I35
sg40
F53.5
sbag0
(g31
g2
Ntp426
Rp427
(dp428
g35
F55.0
sg36
(lp429
sg9
Nsg6
Nsg38
F56.0
sg7
I0
sg8
I0
sg39
I36
sg40
F54.0
sbasg36
(F0.0
(F53.5
F54.0
F56.0
tp430
F1.0
tp431
sbasg36
(F0.0
(F51.0
F52.0
F56.0
tp432
F1.0
tp433
sbasg36
(F0.0
(F47.0
F48.0
F56.0
tp434
F1.0
tp435
sbag0
(g1
g2
Ntp436
Rp437
(dp438
g6
F8.0
sg7
I3
sg8
I2
sg9
(lp439
g0
(g31
g2
Ntp440
Rp441
(dp442
g35
F56.0
sg36
(lp443
sg9
Nsg6
Nsg38
F61.0
sg7
I0
sg8
I0
sg39
I37
sg40
F55.0
sbag0
(g1
g2
Ntp444
Rp445
(dp446
g6
F4.0
sg7
I2
sg8
I2
sg9
(lp447
g0
(g1
g2
Ntp448
Rp449
(dp450
g6
Nsg7
I1
sg8
I2
sg9
(lp451
g0
(g53
g2
Ntp452
Rp453
(dp454
g6
Nsg7
I0
sg8
I1
sg9
Nsg36
(lp455
sbag0
(g31
g2
Ntp456
Rp457
(dp458
g35
F61.0
sg36
(lp459
sg9
Nsg6
Nsg38
F62.0
sg7
I0
sg8
I0
sg39
I38
sg40
F56.0
sbasg36
(F0.5
(F56.0
F61.0
F62.0
tp460
F0.5
tp461
sbag0
(g1
g2
Ntp462
Rp463
(dp464
g6
F2.0
sg7
I1
sg8
I2
sg9
(lp465
g0
(g31
g2
Ntp466
Rp467
(dp468
g35
F62.0
sg36
(lp469
sg9
Nsg6
Nsg38
F63.0
sg7
I0
sg8
I0
sg39
I39
sg40
F61.0
sbag0
(g31
g2
Ntp470
Rp471
(dp472
g35
F63.0
sg36
(lp473
sg9
Nsg6
Nsg38
F64.0
sg7
I0
sg8
I0
sg39
I40
sg40
F62.0
sbasg36
(F0.0
(F61.0
F62.0
F64.0
tp474
F1.0
tp475
sbasg36
(F0.25
(F56.0
F61.0
F64.0
tp476
F0.75
tp477
sbasg36
(F0.0
(F55.0
F56.0
F64.0
tp478
F1.0
tp479
sbasg36
(F0.0
(F47.0
F48.0
F64.0
tp480
F1.0
tp481
sbasg36
(F0.0
(F24.0
F32.0
F64.0
tp482
F1.0
tp483
sbasg36
(F0.0
(I0
F0.0
F64.0
tp484
F1.0
tp485
sbag0
(g1
g2
Ntp486
Rp487
(dp488
g6
F64.0
sg7
I6
sg8
I2
sg9
(lp489
g0
(g1
g2
Ntp490
Rp491
(dp492
g6
F32.0
sg7
I5
sg8
I2
sg9
(lp493
g0
(g1
g2
Ntp494
Rp495
(dp496
g6
F16.0
sg7
I4
sg8
I2
sg9
(lp497
g0
(g1
g2
Ntp498
Rp499
(dp500
g6
F8.0
sg7
I3
sg8
I2
sg9
(lp501
g0
(g1
g2
Ntp502
Rp503
(dp504
g6
F4.0
sg7
I2
sg8
I2
sg9
(lp505
g0
(g31
g2
Ntp506
Rp507
(dp508
g35
F64.0
sg36
(lp509
sg9
Nsg6
Nsg38
F66.0
sg7
I0
sg8
I0
sg39
I41
sg40
F63.0
sbag0
(g1
g2
Ntp510
Rp511
(dp512
g6
F2.0
sg7
I1
sg8
I2
sg9
(lp513
g0
(g31
g2
Ntp514
Rp515
(dp516
g35
F66.0
sg36
(lp517
sg9
Nsg6
Nsg38
F67.0
sg7
I0
sg8
I0
sg39
I42
sg40
F64.0
sbag0
(g31
g2
Ntp518
Rp519
(dp520
g35
F67.0
sg36
(lp521
sg9
Nsg6
Nsg38
F69.0
sg7
I0
sg8
I0
sg39
I43
sg40
F66.0
sbasg36
(F0.0
(F64.0
F66.0
F69.0
tp522
F1.0
tp523
sbasg36
(F0.0
(F63.0
F64.0
F69.0
tp524
F1.0
tp525
sbag0
(g1
g2
Ntp526
Rp527
(dp528
g6
F4.0
sg7
I2
sg8
I2
sg9
(lp529
g0
(g1
g2
Ntp530
Rp531
(dp532
g6
Nsg7
I1
sg8
I2
sg9
(lp533
g0
(g53
g2
Ntp534
Rp535
(dp536
g6
Nsg7
I0
sg8
I1
sg9
Nsg36
(lp537
sbag0
(g31
g2
Ntp538
Rp539
(dp540
g35
F69.0
sg36
(lp541
sg9
Nsg6
Nsg38
F70.0
sg7
I0
sg8
I0
sg39
I44
sg40
F67.0
sbasg36
(F0.5
(F67.0
F69.0
F70.0
tp542
F0.5
tp543
sbag0
(g1
g2
Ntp544
Rp545
(dp546
g6
F2.0
sg7
I1
sg8
I2
sg9
(lp547
g0
(g31
g2
Ntp548
Rp549
(dp550
g35
F70.0
sg36
(lp551
sg9
Nsg6
Nsg38
F71.0
sg7
I0
sg8
I0
sg39
I45
sg40
F69.0
sbag0
(g31
g2
Ntp552
Rp553
(dp554
g35
F71.0
sg36
(lp555
sg9
Nsg6
Nsg38
F72.0
sg7
I0
sg8
I0
sg39
I46
sg40
F70.0
sbasg36
(F0.0
(F69.0
F70.0
F72.0
tp556
F1.0
tp557
sbasg36
(F0.25
(F67.0
F69.0
F72.0
tp558
F0.75
tp559
sbasg36
(F0.0
(F63.0
F64.0
F72.0
tp560
F1.0
tp561
sbag0
(g1
g2
Ntp562
Rp563
(dp564
g6
F8.0
sg7
I3
sg8
I2
sg9
(lp565
g0
(g31
g2
Ntp566
Rp567
(dp568
g35
F72.0
sg36
(lp569
sg9
Nsg6
Nsg38
F77.0
sg7
I0
sg8
I0
sg39
I47
sg40
F71.0
sbag0
(g1
g2
Ntp570
Rp571
(dp572
g6
F4.0
sg7
I2
sg8
I2
sg9
(lp573
g0
(g1
g2
Ntp574
Rp575
(dp576
g6
Nsg7
I1
sg8
I2
sg9
(lp577
g0
(g53
g2
Ntp578
Rp579
(dp580
g6
Nsg7
I0
sg8
I1
sg9
Nsg36
(lp581
sbag0
(g31
g2
Ntp582
Rp583
(dp584
g35
F77.0
sg36
(lp585
sg9
Nsg6
Nsg38
F78.0
sg7
I0
sg8
I0
sg39
I48
sg40
F72.0
sbasg36
(F0.5
(F72.0
F77.0
F78.0
tp586
F0.5
tp587
sbag0
(g1
g2
Ntp588
Rp589
(dp590
g6
F2.0
sg7
I1
sg8
I2
sg9
(lp591
g0
(g31
g2
Ntp592
Rp593
(dp594
g35
F78.0
sg36
(lp595
sg9
Nsg6
Nsg38
F79.0
sg7
I0
sg8
I0
sg39
I49
sg40
F77.0
sbag0
(g31
g2
Ntp596
Rp597
(dp598
g35
F79.0
sg36
(lp599
sg9
Nsg6
Nsg38
F80.0
sg7
I0
sg8
I0
sg39
I50
sg40
F78.0
sbasg36
(F0.0
(F77.0
F78.0
F80.0
tp600
F1.0
tp601
sbasg36
(F0.25
(F72.0
F77.0
F80.0
tp602
F0.75
tp603
sbasg36
(F0.0
(F71.0
F72.0
F80.0
tp604
F1.0
tp605
sbasg36
(F0.0
(F63.0
F64.0
F80.0
tp606
F1.0
tp607
sbag0
(g1
g2
Ntp608
Rp609
(dp610
g6
F16.0
sg7
I4
sg8
I2
sg9
(lp611
g0
(g1
g2
Ntp612
Rp613
(dp614
g6
F8.0
sg7
I3
sg8
I2
sg9
(lp615
g0
(g1
g2
Ntp616
Rp617
(dp618
g6
F4.0
sg7
I2
sg8
I2
sg9
(lp619
g0
(g31
g2
Ntp620
Rp621
(dp622
g35
F80.0
sg36
(lp623
sg9
Nsg6
Nsg38
F82.0
sg7
I0
sg8
I0
sg39
I51
sg40
F79.0
sbag0
(g1
g2
Ntp624
Rp625
(dp626
g6
F2.0
sg7
I1
sg8
I2
sg9
(lp627
g0
(g31
g2
Ntp628
Rp629
(dp630
g35
F82.0
sg36
(lp631
sg9
Nsg6
Nsg38
F83.0
sg7
I0
sg8
I0
sg39
I52
sg40
F80.0
sbag0
(g31
g2
Ntp632
Rp633
(dp634
g35
F83.0
sg36
(lp635
sg9
Nsg6
Nsg38
F85.0
sg7
I0
sg8
I0
sg39
I53
sg40
F82.0
sbasg36
(F0.0
(F80.0
F82.0
F85.0
tp636
F1.0
tp637
sbasg36
(F0.0
(F79.0
F80.0
F85.0
tp638
F1.0
tp639
sbag0
(g1
g2
Ntp640
Rp641
(dp642
g6
F4.0
sg7
I2
sg8
I2
sg9
(lp643
g0
(g1
g2
Ntp644
Rp645
(dp646
g6
Nsg7
I1
sg8
I2
sg9
(lp647
g0
(g53
g2
Ntp648
Rp649
(dp650
g6
Nsg7
I0
sg8
I1
sg9
Nsg36
(lp651
sbag0
(g31
g2
Ntp652
Rp653
(dp654
g35
F85.0
sg36
(lp655
sg9
Nsg6
Nsg38
F86.0
sg7
I0
sg8
I0
sg39
I54
sg40
F83.0
sbasg36
(F0.5
(F83.0
F85.0
F86.0
tp656
F0.5
tp657
sbag0
(g1
g2
Ntp658
Rp659
(dp660
g6
F2.0
sg7
I1
sg8
I2
sg9
(lp661
g0
(g31
g2
Ntp662
Rp663
(dp664
g35
F86.0
sg36
(lp665
sg9
Nsg6
Nsg38
F87.0
sg7
I0
sg8
I0
sg39
I55
sg40
F85.0
sbag0
(g31
g2
Ntp666
Rp667
(dp668
g35
F87.0
sg36
(lp669
sg9
Nsg6
Nsg38
F88.0
sg7
I0
sg8
I0
sg39
I56
sg40
F86.0
sbasg36
(F0.0
(F85.0
F86.0
F88.0
tp670
F1.0
tp671
sbasg36
(F0.25
(F83.0
F85.0
F88.0
tp672
F0.75
tp673
sbasg36
(F0.0
(F79.0
F80.0
F88.0
tp674
F1.0
tp675
sbag0
(g31
g2
Ntp676
Rp677
(dp678
g35
F88.0
sg36
(lp679
sg9
Nsg6
Nsg38
F96.0
sg7
I0
sg8
I0
sg39
I57
sg40
F87.0
sbasg36
(F0.0
(F79.0
F80.0
F96.0
tp680
F1.0
tp681
sbasg36
(F0.0
(F63.0
F64.0
F96.0
tp682
F1.0
tp683
sbag0
(g1
g2
Ntp684
Rp685
(dp686
g6
F32.0
sg7
I5
sg8
I2
sg9
(lp687
g0
(g1
g2
Ntp688
Rp689
(dp690
g6
F16.0
sg7
I4
sg8
I2
sg9
(lp691
g0
(g1
g2
Ntp692
Rp693
(dp694
g6
F8.0
sg7
I3
sg8
I2
sg9
(lp695
g0
(g31
g2
Ntp696
Rp697
(dp698
g35
F96.0
sg36
(lp699
sg9
Nsg6
Nsg38
F100.0
sg7
I0
sg8
I0
sg39
I58
sg40
F88.0
sbag0
(g1
g2
Ntp700
Rp701
(dp702
g6
F4.0
sg7
I2
sg8
I2
sg9
(lp703
g0
(g31
g2
Ntp704
Rp705
(dp706
g35
F100.0
sg36
(lp707
sg9
Nsg6
Nsg38
F103.0
sg7
I0
sg8
I0
sg39
I59
sg40
F96.0
sbag0
(g1
g2
Ntp708
Rp709
(dp710
g6
Nsg7
I1
sg8
I2
sg9
(lp711
g0
(g53
g2
Ntp712
Rp713
(dp714
g6
Nsg7
I0
sg8
I1
sg9
Nsg36
(lp715
sbag0
(g31
g2
Ntp716
Rp717
(dp718
g35
F103.0
sg36
(lp719
sg9
Nsg6
Nsg38
F104.0
sg7
I0
sg8
I0
sg39
I60
sg40
F100.0
sbasg36
(F0.5
(F100.0
F103.0
F104.0
tp720
F0.5
tp721
sbasg36
(F0.0
(F96.0
F100.0
F104.0
tp722
F1.0
tp723
sbasg36
(F0.0
(F88.0
F96.0
F104.0
tp724
F1.0
tp725
sbag0
(g1
g2
Ntp726
Rp727
(dp728
g6
F8.0
sg7
I3
sg8
I2
sg9
(lp729
g0
(g1
g2
Ntp730
Rp731
(dp732
g6
F4.0
sg7
I2
sg8
I2
sg9
(lp733
g0
(g1
g2
Ntp734
Rp735
(dp736
g6
F2.0
sg7
I1
sg8
I2
sg9
(lp737
g0
(g31
g2
Ntp738
Rp739
(dp740
g35
F104.0
sg36
(lp741
sg9
Nsg6
Nsg38
F105.0
sg7
I0
sg8
I0
sg39
I61
sg40
F103.0
sbag0
(g31
g2
Ntp742
Rp743
(dp744
g35
F105.0
sg36
(lp745
sg9
Nsg6
Nsg38
F106.0
sg7
I0
sg8
I0
sg39
I62
sg40
F104.0
sbasg36
(F0.0
(F103.0
F104.0
F106.0
tp746
F1.0
tp747
sbag0
(g1
g2
Ntp748
Rp749
(dp750
g6
F2.0
sg7
I1
sg8
I2
sg9
(lp751
g0
(g31
g2
Ntp752
Rp753
(dp754
g35
F106.0
sg36
(lp755
sg9
Nsg6
Nsg38
F107.0
sg7
I0
sg8
I0
sg39
I63
sg40
F105.0
sbag0
(g31
g2
Ntp756
Rp757
(dp758
g35
F107.0
sg36
(lp759
sg9
Nsg6
Nsg38
F108.0
sg7
I0
sg8
I0
sg39
I64
sg40
F106.0
sbasg36
(F0.0
(F105.0
F106.0
F108.0
tp760
F1.0
tp761
sbasg36
(F0.0
(F103.0
F104.0
F108.0
tp762
F1.0
tp763
sbag0
(g1
g2
Ntp764
Rp765
(dp766
g6
F4.0
sg7
I2
sg8
I2
sg9
(lp767
g0
(g1
g2
Ntp768
Rp769
(dp770
g6
F2.0
sg7
I1
sg8
I2
sg9
(lp771
g0
(g31
g2
Ntp772
Rp773
(dp774
g35
F108.0
sg36
(lp775
sg9
Nsg6
Nsg38
F109.0
sg7
I0
sg8
I0
sg39
I65
sg40
F107.0
sbag0
(g31
g2
Ntp776
Rp777
(dp778
g35
F109.0
sg36
(lp779
sg9
Nsg6
Nsg38
F111.0
sg7
I0
sg8
I0
sg39
I66
sg40
F108.0
sbasg36
(F0.0
(F107.0
F108.0
F111.0
tp780
F1.0
tp781
sbag0
(g1
g2
Ntp782
Rp783
(dp784
g6
Nsg7
I1
sg8
I2
sg9
(lp785
g0
(g53
g2
Ntp786
Rp787
(dp788
g6
Nsg7
I0
sg8
I1
sg9
Nsg36
(lp789
sbag0
(g31
g2
Ntp790
Rp791
(dp792
g35
F111.0
sg36
(lp793
sg9
Nsg6
Nsg38
F112.0
sg7
I0
sg8
I0
sg39
I67
sg40
F109.0
sbasg36
(F0.5
(F109.0
F111.0
F112.0
tp794
F0.5
tp795
sbasg36
(F0.0
(F107.0
F108.0
F112.0
tp796
F1.0
tp797
sbasg36
(F0.0
(F103.0
F104.0
F112.0
tp798
F1.0
tp799
sbasg36
(F0.0
(F88.0
F96.0
F112.0
tp800
F1.0
tp801
sbag0
(g1
g2
Ntp802
Rp803
(dp804
g6
F16.0
sg7
I4
sg8
I2
sg9
(lp805
g0
(g1
g2
Ntp806
Rp807
(dp808
g6
F8.0
sg7
I3
sg8
I2
sg9
(lp809
g0
(g31
g2
Ntp810
Rp811
(dp812
g35
F112.0
sg36
(lp813
sg9
Nsg6
Nsg38
F116.0
sg7
I0
sg8
I0
sg39
I68
sg40
F111.0
sbag0
(g1
g2
Ntp814
Rp815
(dp816
g6
F4.0
sg7
I2
sg8
I2
sg9
(lp817
g0
(g31
g2
Ntp818
Rp819
(dp820
g35
F116.0
sg36
(lp821
sg9
Nsg6
Nsg38
F119.0
sg7
I0
sg8
I0
sg39
I69
sg40
F112.0
sbag0
(g1
g2
Ntp822
Rp823
(dp824
g6
Nsg7
I1
sg8
I2
sg9
(lp825
g0
(g53
g2
Ntp826
Rp827
(dp828
g6
Nsg7
I0
sg8
I1
sg9
Nsg36
(lp829
sbag0
(g31
g2
Ntp830
Rp831
(dp832
g35
F119.0
sg36
(lp833
sg9
Nsg6
Nsg38
F120.0
sg7
I0
sg8
I0
sg39
I70
sg40
F116.0
sbasg36
(F0.5
(F116.0
F119.0
F120.0
tp834
F0.5
tp835
sbasg36
(F0.0
(F112.0
F116.0
F120.0
tp836
F1.0
tp837
sbasg36
(F0.0
(F111.0
F112.0
F120.0
tp838
F1.0
tp839
sbag0
(g1
g2
Ntp840
Rp841
(dp842
g6
F8.0
sg7
I3
sg8
I2
sg9
(lp843
g0
(g1
g2
Ntp844
Rp845
(dp846
g6
F4.0
sg7
I2
sg8
I2
sg9
(lp847
g0
(g1
g2
Ntp848
Rp849
(dp850
g6
F2.0
sg7
I1
sg8
I2
sg9
(lp851
g0
(g31
g2
Ntp852
Rp853
(dp854
g35
F120.0
sg36
(lp855
sg9
Nsg6
Nsg38
F121.0
sg7
I0
sg8
I0
sg39
I71
sg40
F119.0
sbag0
(g31
g2
Ntp856
Rp857
(dp858
g35
F121.0
sg36
(lp859
sg9
Nsg6
Nsg38
F122.0
sg7
I0
sg8
I0
sg39
I72
sg40
F120.0
sbasg36
(F0.0
(F119.0
F120.0
F122.0
tp860
F1.0
tp861
sbag0
(g1
g2
Ntp862
Rp863
(dp864
g6
F2.0
sg7
I1
sg8
I2
sg9
(lp865
g0
(g31
g2
Ntp866
Rp867
(dp868
g35
F122.0
sg36
(lp869
sg9
Nsg6
Nsg38
F123.0
sg7
I0
sg8
I0
sg39
I73
sg40
F121.0
sbag0
(g31
g2
Ntp870
Rp871
(dp872
g35
F123.0
sg36
(lp873
sg9
Nsg6
Nsg38
F124.0
sg7
I0
sg8
I0
sg39
I74
sg40
F122.0
sbasg36
(F0.0
(F121.0
F122.0
F124.0
tp874
F1.0
tp875
sbasg36
(F0.0
(F119.0
F120.0
F124.0
tp876
F1.0
tp877
sbag0
(g1
g2
Ntp878
Rp879
(dp880
g6
F4.0
sg7
I2
sg8
I2
sg9
(lp881
g0
(g31
g2
Ntp882
Rp883
(dp884
g35
F124.0
sg36
(lp885
sg9
Nsg6
Nsg38
F127.0
sg7
I0
sg8
I0
sg39
I75
sg40
F123.0
sbag0
(g1
g2
Ntp886
Rp887
(dp888
g6
Nsg7
I1
sg8
I2
sg9
(lp889
g0
(g53
g2
Ntp890
Rp891
(dp892
g6
Nsg7
I0
sg8
I1
sg9
Nsg36
(lp893
sbag0
(g31
g2
Ntp894
Rp895
(dp896
g35
F127.0
sg36
(lp897
sg9
Nsg6
Nsg38
F128.0
sg7
I0
sg8
I0
sg39
I76
sg40
F124.0
sbasg36
(F0.5
(F124.0
F127.0
F128.0
tp898
F0.5
tp899
sbasg36
(F0.0
(F123.0
F124.0
F128.0
tp900
F1.0
tp901
sbasg36
(F0.0
(F119.0
F120.0
F128.0
tp902
F1.0
tp903
sbasg36
(F0.0
(F111.0
F112.0
F128.0
tp904
F1.0
tp905
sbasg36
(F0.0
(F88.0
F96.0
F128.0
tp906
F1.0
tp907
sbasg36
(F0.0
(F63.0
F64.0
F128.0
tp908
F1.0
tp909
sbasg36
(F0.0
(I0
F0.0
F128.0
tp910
F1.0
tp911
sbag0
(g1
g2
Ntp912
Rp913
(dp914
g6
F128.0
sg7
I7
sg8
I2
sg9
(lp915
g0
(g1
g2
Ntp916
Rp917
(dp918
g6
F64.0
sg7
I6
sg8
I2
sg9
(lp919
g0
(g1
g2
Ntp920
Rp921
(dp922
g6
F32.0
sg7
I5
sg8
I2
sg9
(lp923
g0
(g1
g2
Ntp924
Rp925
(dp926
g6
F16.0
sg7
I4
sg8
I2
sg9
(lp927
g0
(g1
g2
Ntp928
Rp929
(dp930
g6
F8.0
sg7
I3
sg8
I2
sg9
(lp931
g0
(g1
g2
Ntp932
Rp933
(dp934
g6
F4.0
sg7
I2
sg8
I2
sg9
(lp935
g0
(g1
g2
Ntp936
Rp937
(dp938
g6
F2.0
sg7
I1
sg8
I2
sg9
(lp939
g0
(g31
g2
Ntp940
Rp941
(dp942
g35
F128.0
sg36
(lp943
sg9
Nsg6
Nsg38
F129.0
sg7
I0
sg8
I0
sg39
I77
sg40
F127.0
sbag0
(g31
g2
Ntp944
Rp945
(dp946
g35
F129.0
sg36
(lp947
sg9
Nsg6
Nsg38
F130.0
sg7
I0
sg8
I0
sg39
I78
sg40
F128.0
sbasg36
(F0.0
(F127.0
F128.0
F130.0
tp948
F1.0
tp949
sbag0
(g1
g2
Ntp950
Rp951
(dp952
g6
F2.0
sg7
I1
sg8
I2
sg9
(lp953
g0
(g31
g2
Ntp954
Rp955
(dp956
g35
F130.0
sg36
(lp957
sg9
Nsg6
Nsg38
F131.0
sg7
I0
sg8
I0
sg39
I79
sg40
F129.0
sbag0
(g31
g2
Ntp958
Rp959
(dp960
g35
F131.0
sg36
(lp961
sg9
Nsg6
Nsg38
F132.0
sg7
I0
sg8
I0
sg39
I80
sg40
F130.0
sbasg36
(F0.0
(F129.0
F130.0
F132.0
tp962
F1.0
tp963
sbasg36
(F0.0
(F127.0
F128.0
F132.0
tp964
F1.0
tp965
sbag0
(g1
g2
Ntp966
Rp967
(dp968
g6
F4.0
sg7
I1
sg8
I2
sg9
(lp969
g0
(g31
g2
Ntp970
Rp971
(dp972
g35
F132.0
sg36
(lp973
sg9
Nsg6
Nsg38
F134.0
sg7
I0
sg8
I0
sg39
I81
sg40
F131.0
sbag0
(g31
g2
Ntp974
Rp975
(dp976
g35
F134.0
sg36
(lp977
sg9
Nsg6
Nsg38
F136.0
sg7
I0
sg8
I0
sg39
I82
sg40
F132.0
sbasg36
(F0.0
(F131.0
F132.0
F136.0
tp978
F1.0
tp979
sbasg36
(F0.0
(F127.0
F128.0
F136.0
tp980
F1.0
tp981
sbag0
(g31
g2
Ntp982
Rp983
(dp984
g35
F136.0
sg36
(lp985
sg9
Nsg6
Nsg38
F256.0
sg7
I0
sg8
I0
sg39
I83
sg40
F134.0
sbasg36
(F0.0
(F127.0
F128.0
F256.0
tp986
F1.0
tp987
sbag0
(g53
g2
Ntp988
Rp989
(dp990
g6
Nsg7
I0
sg8
I1
sg9
Nsg36
(lp991
sbasg36
(F0.0
(F127.0
F128.0
F256.0
tp992
F1.0
tp993
sbag0
(g53
g2
Ntp994
Rp995
(dp996
g6
Nsg7
I0
sg8
I1
sg9
Nsg36
(lp997
sbasg36
(F0.0
(F127.0
F128.0
F256.0
tp998
F1.0
tp999
sbag0
(g53
g2
Ntp1000
Rp1001
(dp1002
g6
Nsg7
I0
sg8
I1
sg9
Nsg36
(lp1003
sbasg36
(F0.0
(F127.0
F128.0
F256.0
tp1004
F1.0
tp1005
sbasg36
(F0.0
(I0
F0.0
F256.0
tp1006
F1.0
tp1007
sb.