ccopy_reg
_reconstructor
p0
(cjazzr.rhythm.symbol
Symbol
p1
c__builtin__
object
p2
Ntp3
Rp4
(dp5
S'length'
p6
F128.0
sS'depth'
p7
I9
sS'type'
p8
I2
sS'children'
p9
(lp10
g0
(g1
g2
Ntp11
Rp12
(dp13
g6
F64.0
sg7
I8
sg8
I2
sg9
(lp14
g0
(g1
g2
Ntp15
Rp16
(dp17
g6
F32.0
sg7
I7
sg8
I2
sg9
(lp18
g0
(g1
g2
Ntp19
Rp20
(dp21
g6
F16.0
sg7
I5
sg8
I2
sg9
(lp22
g0
(cjazzr.rhythm.symbol
Onset
p23
g2
Ntp24
Rp25
(dp26
S'on'
p27
F0.0
sS'features'
p28
(lp29
sg9
Nsg6
NsS'next'
p30
F9.0
sg7
I0
sg8
I0
sS'annotation'
p31
I0
sS'previous'
p32
I0
sbag0
(g1
g2
Ntp33
Rp34
(dp35
g6
F8.0
sg7
I4
sg8
I2
sg9
(lp36
g0
(g1
g2
Ntp37
Rp38
(dp39
g6
F4.0
sg7
I2
sg8
I2
sg9
(lp40
g0
(g1
g2
Ntp41
Rp42
(dp43
g6
Nsg7
I1
sg8
I2
sg9
(lp44
g0
(cjazzr.rhythm.symbol
Tie
p45
g2
Ntp46
Rp47
(dp48
g6
Nsg7
I0
sg8
I1
sg9
Nsg28
(lp49
sbag0
(g23
g2
Ntp50
Rp51
(dp52
g27
F9.0
sg28
(lp53
sg9
Nsg6
Nsg30
F10.0
sg7
I0
sg8
I0
sg31
I1
sg32
F0.0
sbasg28
(F0.5
(F0.0
F9.0
F10.0
tp54
F0.5
tp55
sbag0
(g1
g2
Ntp56
Rp57
(dp58
g6
F2.0
sg7
I1
sg8
I2
sg9
(lp59
g0
(g23
g2
Ntp60
Rp61
(dp62
g27
F10.0
sg28
(lp63
sg9
Nsg6
Nsg30
F11.0
sg7
I0
sg8
I0
sg31
I2
sg32
F9.0
sbag0
(g23
g2
Ntp64
Rp65
(dp66
g27
F11.0
sg28
(lp67
sg9
Nsg6
Nsg30
F12.0
sg7
I0
sg8
I0
sg31
I3
sg32
F10.0
sbasg28
(F0.0
(F9.0
F10.0
F12.0
tp68
F1.0
tp69
sbasg28
(F0.25
(F0.0
F9.0
F12.0
tp70
F0.75
tp71
sbag0
(g1
g2
Ntp72
Rp73
(dp74
g6
F4.0
sg7
I3
sg8
I2
sg9
(lp75
g0
(g1
g2
Ntp76
Rp77
(dp78
g6
F2.0
sg7
I1
sg8
I2
sg9
(lp79
g0
(g23
g2
Ntp80
Rp81
(dp82
g27
F12.0
sg28
(lp83
sg9
Nsg6
Nsg30
F13.0
sg7
I0
sg8
I0
sg31
I4
sg32
F11.0
sbag0
(g23
g2
Ntp84
Rp85
(dp86
g27
F13.0
sg28
(lp87
sg9
Nsg6
Nsg30
F14.0
sg7
I0
sg8
I0
sg31
I5
sg32
F12.0
sbasg28
(F0.0
(F11.0
F12.0
F14.0
tp88
F1.0
tp89
sbag0
(g1
g2
Ntp90
Rp91
(dp92
g6
F2.0
sg7
I2
sg8
I2
sg9
(lp93
g0
(g23
g2
Ntp94
Rp95
(dp96
g27
F14.0
sg28
(lp97
sg9
Nsg6
Nsg30
F15.0
sg7
I0
sg8
I0
sg31
I6
sg32
F13.0
sbag0
(g1
g2
Ntp98
Rp99
(dp100
g6
F1.0
sg7
I1
sg8
I2
sg9
(lp101
g0
(g23
g2
Ntp102
Rp103
(dp104
g27
F15.0
sg28
(lp105
sg9
Nsg6
Nsg30
F15.5
sg7
I0
sg8
I0
sg31
I7
sg32
F14.0
sbag0
(g23
g2
Ntp106
Rp107
(dp108
g27
F15.5
sg28
(lp109
sg9
Nsg6
Nsg30
F25.0
sg7
I0
sg8
I0
sg31
I8
sg32
F15.0
sbasg28
(F0.0
(F14.0
F15.0
F25.0
tp110
F1.0
tp111
sbasg28
(F0.0
(F13.0
F14.0
F25.0
tp112
F1.0
tp113
sbasg28
(F0.0
(F11.0
F12.0
F25.0
tp114
F1.0
tp115
sbasg28
(F0.125
(F0.0
F9.0
F25.0
tp116
F0.875
tp117
sbasg28
(F0.0
(I0
F0.0
F25.0
tp118
F1.0
tp119
sbag0
(g1
g2
Ntp120
Rp121
(dp122
g6
F16.0
sg7
I6
sg8
I2
sg9
(lp123
g0
(g45
g2
Ntp124
Rp125
(dp126
g6
Nsg7
I0
sg8
I1
sg9
Nsg28
(lp127
sbag0
(g1
g2
Ntp128
Rp129
(dp130
g6
F8.0
sg7
I5
sg8
I2
sg9
(lp131
g0
(g1
g2
Ntp132
Rp133
(dp134
g6
F4.0
sg7
I4
sg8
I2
sg9
(lp135
g0
(g1
g2
Ntp136
Rp137
(dp138
g6
Nsg7
I1
sg8
I2
sg9
(lp139
g0
(g45
g2
Ntp140
Rp141
(dp142
g6
Nsg7
I0
sg8
I1
sg9
Nsg28
(lp143
sbag0
(g23
g2
Ntp144
Rp145
(dp146
g27
F25.0
sg28
(lp147
sg9
Nsg6
Nsg30
F26.0
sg7
I0
sg8
I0
sg31
I9
sg32
F15.5
sbasg28
(F0.5
(F15.5
F25.0
F26.0
tp148
F0.5
tp149
sbag0
(g1
g2
Ntp150
Rp151
(dp152
g6
F2.0
sg7
I3
sg8
I2
sg9
(lp153
g0
(g23
g2
Ntp154
Rp155
(dp156
g27
F26.0
sg28
(lp157
sg9
Nsg6
Nsg30
F27.25
sg7
I0
sg8
I0
sg31
I10
sg32
F25.0
sbag0
(g1
g2
Ntp158
Rp159
(dp160
g6
Nsg7
I2
sg8
I2
sg9
(lp161
g0
(g1
g2
Ntp162
Rp163
(dp164
g6
Nsg7
I1
sg8
I2
sg9
(lp165
g0
(g45
g2
Ntp166
Rp167
(dp168
g6
Nsg7
I0
sg8
I1
sg9
Nsg28
(lp169
sbag0
(g23
g2
Ntp170
Rp171
(dp172
g27
F27.25
sg28
(lp173
sg9
Nsg6
Nsg30
F28.0
sg7
I0
sg8
I0
sg31
I11
sg32
F26.0
sbasg28
(F0.5
(F26.0
F27.25
F28.0
tp174
F0.5
tp175
sbag0
(g45
g2
Ntp176
Rp177
(dp178
g6
Nsg7
I0
sg8
I1
sg9
Nsg28
(lp179
sbasg28
(F0.25
(F26.0
F27.25
F28.0
tp180
F0.75
tp181
sbasg28
(F0.0
(F25.0
F26.0
F28.0
tp182
F1.0
tp183
sbasg28
(F0.25
(F15.5
F25.0
F28.0
tp184
F0.75
tp185
sbag0
(g1
g2
Ntp186
Rp187
(dp188
g6
F4.0
sg7
I3
sg8
I2
sg9
(lp189
g0
(g1
g2
Ntp190
Rp191
(dp192
g6
F2.0
sg7
I1
sg8
I2
sg9
(lp193
g0
(g23
g2
Ntp194
Rp195
(dp196
g27
F28.0
sg28
(lp197
sg9
Nsg6
Nsg30
F29.0
sg7
I0
sg8
I0
sg31
I12
sg32
F27.25
sbag0
(g23
g2
Ntp198
Rp199
(dp200
g27
F29.0
sg28
(lp201
sg9
Nsg6
Nsg30
F30.0
sg7
I0
sg8
I0
sg31
I13
sg32
F28.0
sbasg28
(F0.0
(F27.25
F28.0
F30.0
tp202
F1.0
tp203
sbag0
(g1
g2
Ntp204
Rp205
(dp206
g6
F2.0
sg7
I2
sg8
I2
sg9
(lp207
g0
(g1
g2
Ntp208
Rp209
(dp210
g6
F1.0
sg7
I1
sg8
I2
sg9
(lp211
g0
(g23
g2
Ntp212
Rp213
(dp214
g27
F30.0
sg28
(lp215
sg9
Nsg6
Nsg30
F30.5
sg7
I0
sg8
I0
sg31
I14
sg32
F29.0
sbag0
(g23
g2
Ntp216
Rp217
(dp218
g27
F30.5
sg28
(lp219
sg9
Nsg6
Nsg30
F31.5
sg7
I0
sg8
I0
sg31
I15
sg32
F30.0
sbasg28
(F0.0
(F29.0
F30.0
F31.5
tp220
F1.0
tp221
sbag0
(g1
g2
Ntp222
Rp223
(dp224
g6
Nsg7
I1
sg8
I2
sg9
(lp225
g0
(g45
g2
Ntp226
Rp227
(dp228
g6
Nsg7
I0
sg8
I1
sg9
Nsg28
(lp229
sbag0
(g23
g2
Ntp230
Rp231
(dp232
g27
F31.5
sg28
(lp233
sg9
Nsg6
Nsg30
F41.0
sg7
I0
sg8
I0
sg31
I16
sg32
F30.5
sbasg28
(F0.5
(F30.5
F31.5
F41.0
tp234
F0.5
tp235
sbasg28
(F0.0
(F29.0
F30.0
F41.0
tp236
F1.0
tp237
sbasg28
(F0.0
(F27.25
F28.0
F41.0
tp238
F1.0
tp239
sbasg28
(F0.125
(F15.5
F25.0
F41.0
tp240
F0.875
tp241
sbasg28
(F0.5625
(F15.5
F25.0
F41.0
tp242
F0.4375
tp243
sbasg28
(F0.0
(I0
F0.0
F41.0
tp244
F1.0
tp245
sbag0
(g1
g2
Ntp246
Rp247
(dp248
g6
F32.0
sg7
I6
sg8
I2
sg9
(lp249
g0
(g1
g2
Ntp250
Rp251
(dp252
g6
F16.0
sg7
I4
sg8
I2
sg9
(lp253
g0
(g45
g2
Ntp254
Rp255
(dp256
g6
Nsg7
I0
sg8
I1
sg9
Nsg28
(lp257
sbag0
(g1
g2
Ntp258
Rp259
(dp260
g6
F8.0
sg7
I3
sg8
I2
sg9
(lp261
g0
(g1
g2
Ntp262
Rp263
(dp264
g6
F4.0
sg7
I2
sg8
I2
sg9
(lp265
g0
(g1
g2
Ntp266
Rp267
(dp268
g6
Nsg7
I1
sg8
I2
sg9
(lp269
g0
(g45
g2
Ntp270
Rp271
(dp272
g6
Nsg7
I0
sg8
I1
sg9
Nsg28
(lp273
sbag0
(g23
g2
Ntp274
Rp275
(dp276
g27
F41.0
sg28
(lp277
sg9
Nsg6
Nsg30
F42.0
sg7
I0
sg8
I0
sg31
I17
sg32
F31.5
sbasg28
(F0.5
(F31.5
F41.0
F42.0
tp278
F0.5
tp279
sbag0
(g1
g2
Ntp280
Rp281
(dp282
g6
F2.0
sg7
I1
sg8
I2
sg9
(lp283
g0
(g23
g2
Ntp284
Rp285
(dp286
g27
F42.0
sg28
(lp287
sg9
Nsg6
Nsg30
F43.0
sg7
I0
sg8
I0
sg31
I18
sg32
F41.0
sbag0
(g23
g2
Ntp288
Rp289
(dp290
g27
F43.0
sg28
(lp291
sg9
Nsg6
Nsg30
F44.0
sg7
I0
sg8
I0
sg31
I19
sg32
F42.0
sbasg28
(F0.0
(F41.0
F42.0
F44.0
tp292
F1.0
tp293
sbasg28
(F0.25
(F31.5
F41.0
F44.0
tp294
F0.75
tp295
sbag0
(g1
g2
Ntp296
Rp297
(dp298
g6
F4.0
sg7
I2
sg8
I2
sg9
(lp299
g0
(g1
g2
Ntp300
Rp301
(dp302
g6
F2.0
sg7
I1
sg8
I2
sg9
(lp303
g0
(g23
g2
Ntp304
Rp305
(dp306
g27
F44.0
sg28
(lp307
sg9
Nsg6
Nsg30
F45.0
sg7
I0
sg8
I0
sg31
I20
sg32
F43.0
sbag0
(g23
g2
Ntp308
Rp309
(dp310
g27
F45.0
sg28
(lp311
sg9
Nsg6
Nsg30
F46.0
sg7
I0
sg8
I0
sg31
I21
sg32
F44.0
sbasg28
(F0.0
(F43.0
F44.0
F46.0
tp312
F1.0
tp313
sbag0
(g1
g2
Ntp314
Rp315
(dp316
g6
F2.0
sg7
I1
sg8
I2
sg9
(lp317
g0
(g23
g2
Ntp318
Rp319
(dp320
g27
F46.0
sg28
(lp321
sg9
Nsg6
Nsg30
F47.0
sg7
I0
sg8
I0
sg31
I22
sg32
F45.0
sbag0
(g23
g2
Ntp322
Rp323
(dp324
g27
F47.0
sg28
(lp325
sg9
Nsg6
Nsg30
F48.0
sg7
I0
sg8
I0
sg31
I23
sg32
F46.0
sbasg28
(F0.0
(F45.0
F46.0
F48.0
tp326
F1.0
tp327
sbasg28
(F0.0
(F43.0
F44.0
F48.0
tp328
F1.0
tp329
sbasg28
(F0.125
(F31.5
F41.0
F48.0
tp330
F0.875
tp331
sbasg28
(F0.5625
(F31.5
F41.0
F48.0
tp332
F0.4375
tp333
sbag0
(g1
g2
Ntp334
Rp335
(dp336
g6
F16.0
sg7
I5
sg8
I2
sg9
(lp337
g0
(g1
g2
Ntp338
Rp339
(dp340
g6
F8.0
sg7
I4
sg8
I2
sg9
(lp341
g0
(g23
g2
Ntp342
Rp343
(dp344
g27
F48.0
sg28
(lp345
sg9
Nsg6
Nsg30
F54.0
sg7
I0
sg8
I0
sg31
I24
sg32
F47.0
sbag0
(g1
g2
Ntp346
Rp347
(dp348
g6
F4.0
sg7
I3
sg8
I2
sg9
(lp349
g0
(g45
g2
Ntp350
Rp351
(dp352
g6
Nsg7
I0
sg8
I1
sg9
Nsg28
(lp353
sbag0
(g1
g2
Ntp354
Rp355
(dp356
g6
F2.0
sg7
I2
sg8
I2
sg9
(lp357
g0
(g23
g2
Ntp358
Rp359
(dp360
g27
F54.0
sg28
(lp361
sg9
Nsg6
Nsg30
F55.5
sg7
I0
sg8
I0
sg31
I25
sg32
F48.0
sbag0
(g1
g2
Ntp362
Rp363
(dp364
g6
Nsg7
I1
sg8
I2
sg9
(lp365
g0
(g45
g2
Ntp366
Rp367
(dp368
g6
Nsg7
I0
sg8
I1
sg9
Nsg28
(lp369
sbag0
(g23
g2
Ntp370
Rp371
(dp372
g27
F55.5
sg28
(lp373
sg9
Nsg6
Nsg30
F62.0
sg7
I0
sg8
I0
sg31
I26
sg32
F54.0
sbasg28
(F0.5
(F54.0
F55.5
F62.0
tp374
F0.5
tp375
sbasg28
(F0.0
(F48.0
F54.0
F62.0
tp376
F1.0
tp377
sbasg28
(F0.5
(F48.0
F54.0
F62.0
tp378
F0.5
tp379
sbasg28
(F0.0
(F47.0
F48.0
F62.0
tp380
F1.0
tp381
sbag0
(g1
g2
Ntp382
Rp383
(dp384
g6
Nsg7
I2
sg8
I2
sg9
(lp385
g0
(g45
g2
Ntp386
Rp387
(dp388
g6
Nsg7
I0
sg8
I1
sg9
Nsg28
(lp389
sbag0
(g1
g2
Ntp390
Rp391
(dp392
g6
Nsg7
I1
sg8
I2
sg9
(lp393
g0
(g45
g2
Ntp394
Rp395
(dp396
g6
Nsg7
I0
sg8
I1
sg9
Nsg28
(lp397
sbag0
(g23
g2
Ntp398
Rp399
(dp400
g27
F62.0
sg28
(lp401
sg9
Nsg6
Nsg30
F64.0
sg7
I0
sg8
I0
sg31
I27
sg32
F55.5
sbasg28
(F0.5
(F55.5
F62.0
F64.0
tp402
F0.5
tp403
sbasg28
(F0.75
(F55.5
F62.0
F64.0
tp404
F0.25
tp405
sbasg28
(F0.0
(F47.0
F48.0
F64.0
tp406
F1.0
tp407
sbasg28
(F0.28125
(F31.5
F41.0
F64.0
tp408
F0.71875
tp409
sbasg28
(F0.0
(I0
F0.0
F64.0
tp410
F1.0
tp411
sbag0
(g1
g2
Ntp412
Rp413
(dp414
g6
F64.0
sg7
I8
sg8
I2
sg9
(lp415
g0
(g1
g2
Ntp416
Rp417
(dp418
g6
F32.0
sg7
I6
sg8
I2
sg9
(lp419
g0
(g1
g2
Ntp420
Rp421
(dp422
g6
F16.0
sg7
I3
sg8
I2
sg9
(lp423
g0
(g1
g2
Ntp424
Rp425
(dp426
g6
F8.0
sg7
I2
sg8
I2
sg9
(lp427
g0
(g1
g2
Ntp428
Rp429
(dp430
g6
F4.0
sg7
I1
sg8
I2
sg9
(lp431
g0
(g23
g2
Ntp432
Rp433
(dp434
g27
F64.0
sg28
(lp435
sg9
Nsg6
Nsg30
F66.0
sg7
I0
sg8
I0
sg31
I28
sg32
F62.0
sbag0
(g23
g2
Ntp436
Rp437
(dp438
g27
F66.0
sg28
(lp439
sg9
Nsg6
Nsg30
F68.0
sg7
I0
sg8
I0
sg31
I29
sg32
F64.0
sbasg28
(F0.0
(F62.0
F64.0
F68.0
tp440
F1.0
tp441
sbag0
(g1
g2
Ntp442
Rp443
(dp444
g6
F4.0
sg7
I1
sg8
I2
sg9
(lp445
g0
(g23
g2
Ntp446
Rp447
(dp448
g27
F68.0
sg28
(lp449
sg9
Nsg6
Nsg30
F70.0
sg7
I0
sg8
I0
sg31
I30
sg32
F66.0
sbag0
(g23
g2
Ntp450
Rp451
(dp452
g27
F70.0
sg28
(lp453
sg9
Nsg6
Nsg30
F72.0
sg7
I0
sg8
I0
sg31
I31
sg32
F68.0
sbasg28
(F0.0
(F66.0
F68.0
F72.0
tp454
F1.0
tp455
sbasg28
(F0.0
(F62.0
F64.0
F72.0
tp456
F1.0
tp457
sbag0
(g23
g2
Ntp458
Rp459
(dp460
g27
F72.0
sg28
(lp461
sg9
Nsg6
Nsg30
F81.0
sg7
I0
sg8
I0
sg31
I32
sg32
F70.0
sbasg28
(F0.0
(F62.0
F64.0
F81.0
tp462
F1.0
tp463
sbag0
(g1
g2
Ntp464
Rp465
(dp466
g6
F16.0
sg7
I5
sg8
I2
sg9
(lp467
g0
(g1
g2
Ntp468
Rp469
(dp470
g6
F8.0
sg7
I4
sg8
I2
sg9
(lp471
g0
(g1
g2
Ntp472
Rp473
(dp474
g6
F4.0
sg7
I2
sg8
I2
sg9
(lp475
g0
(g1
g2
Ntp476
Rp477
(dp478
g6
Nsg7
I1
sg8
I2
sg9
(lp479
g0
(g45
g2
Ntp480
Rp481
(dp482
g6
Nsg7
I0
sg8
I1
sg9
Nsg28
(lp483
sbag0
(g23
g2
Ntp484
Rp485
(dp486
g27
F81.0
sg28
(lp487
sg9
Nsg6
Nsg30
F82.0
sg7
I0
sg8
I0
sg31
I33
sg32
F72.0
sbasg28
(F0.5
(F72.0
F81.0
F82.0
tp488
F0.5
tp489
sbag0
(g1
g2
Ntp490
Rp491
(dp492
g6
F2.0
sg7
I1
sg8
I2
sg9
(lp493
g0
(g23
g2
Ntp494
Rp495
(dp496
g27
F82.0
sg28
(lp497
sg9
Nsg6
Nsg30
F83.0
sg7
I0
sg8
I0
sg31
I34
sg32
F81.0
sbag0
(g23
g2
Ntp498
Rp499
(dp500
g27
F83.0
sg28
(lp501
sg9
Nsg6
Nsg30
F84.0
sg7
I0
sg8
I0
sg31
I35
sg32
F82.0
sbasg28
(F0.0
(F81.0
F82.0
F84.0
tp502
F1.0
tp503
sbasg28
(F0.25
(F72.0
F81.0
F84.0
tp504
F0.75
tp505
sbag0
(g1
g2
Ntp506
Rp507
(dp508
g6
F4.0
sg7
I3
sg8
I2
sg9
(lp509
g0
(g1
g2
Ntp510
Rp511
(dp512
g6
F2.0
sg7
I2
sg8
I2
sg9
(lp513
g0
(g1
g2
Ntp514
Rp515
(dp516
g6
F1.0
sg7
I1
sg8
I2
sg9
(lp517
g0
(g23
g2
Ntp518
Rp519
(dp520
g27
F84.0
sg28
(lp521
sg9
Nsg6
Nsg30
F84.5
sg7
I0
sg8
I0
sg31
I36
sg32
F83.0
sbag0
(g23
g2
Ntp522
Rp523
(dp524
g27
F84.5
sg28
(lp525
sg9
Nsg6
Nsg30
F86.0
sg7
I0
sg8
I0
sg31
I37
sg32
F84.0
sbasg28
(F0.0
(F83.0
F84.0
F86.0
tp526
F1.0
tp527
sbag0
(g45
g2
Ntp528
Rp529
(dp530
g6
Nsg7
I0
sg8
I1
sg9
Nsg28
(lp531
sbasg28
(F0.0
(F83.0
F84.0
F86.0
tp532
F1.0
tp533
sbag0
(g1
g2
Ntp534
Rp535
(dp536
g6
F2.0
sg7
I2
sg8
I2
sg9
(lp537
g0
(g23
g2
Ntp538
Rp539
(dp540
g27
F86.0
sg28
(lp541
sg9
Nsg6
Nsg30
F87.0
sg7
I0
sg8
I0
sg31
I38
sg32
F84.5
sbag0
(g1
g2
Ntp542
Rp543
(dp544
g6
F1.0
sg7
I1
sg8
I2
sg9
(lp545
g0
(g23
g2
Ntp546
Rp547
(dp548
g27
F87.0
sg28
(lp549
sg9
Nsg6
Nsg30
F87.5
sg7
I0
sg8
I0
sg31
I39
sg32
F86.0
sbag0
(g23
g2
Ntp550
Rp551
(dp552
g27
F87.5
sg28
(lp553
sg9
Nsg6
Nsg30
F97.0
sg7
I0
sg8
I0
sg31
I40
sg32
F87.0
sbasg28
(F0.0
(F86.0
F87.0
F97.0
tp554
F1.0
tp555
sbasg28
(F0.0
(F84.5
F86.0
F97.0
tp556
F1.0
tp557
sbasg28
(F0.0
(F83.0
F84.0
F97.0
tp558
F1.0
tp559
sbasg28
(F0.125
(F72.0
F81.0
F97.0
tp560
F0.875
tp561
sbag0
(g45
g2
Ntp562
Rp563
(dp564
g6
Nsg7
I0
sg8
I1
sg9
Nsg28
(lp565
sbasg28
(F0.0625
(F72.0
F81.0
F97.0
tp566
F0.9375
tp567
sbasg28
(F0.0
(F62.0
F64.0
F97.0
tp568
F1.0
tp569
sbag0
(g1
g2
Ntp570
Rp571
(dp572
g6
F32.0
sg7
I7
sg8
I2
sg9
(lp573
g0
(g1
g2
Ntp574
Rp575
(dp576
g6
F16.0
sg7
I6
sg8
I2
sg9
(lp577
g0
(g1
g2
Ntp578
Rp579
(dp580
g6
F8.0
sg7
I5
sg8
I2
sg9
(lp581
g0
(g1
g2
Ntp582
Rp583
(dp584
g6
F4.0
sg7
I4
sg8
I2
sg9
(lp585
g0
(g1
g2
Ntp586
Rp587
(dp588
g6
Nsg7
I1
sg8
I2
sg9
(lp589
g0
(g45
g2
Ntp590
Rp591
(dp592
g6
Nsg7
I0
sg8
I1
sg9
Nsg28
(lp593
sbag0
(g23
g2
Ntp594
Rp595
(dp596
g27
F97.0
sg28
(lp597
sg9
Nsg6
Nsg30
F98.0
sg7
I0
sg8
I0
sg31
I41
sg32
F87.5
sbasg28
(F0.5
(F87.5
F97.0
F98.0
tp598
F0.5
tp599
sbag0
(g1
g2
Ntp600
Rp601
(dp602
g6
F2.0
sg7
I3
sg8
I2
sg9
(lp603
g0
(g1
g2
Ntp604
Rp605
(dp606
g6
F1.0
sg7
I2
sg8
I2
sg9
(lp607
g0
(g23
g2
Ntp608
Rp609
(dp610
g27
F98.0
sg28
(lp611
sg9
Nsg6
Nsg30
F98.75
sg7
I0
sg8
I0
sg31
I42
sg32
F97.0
sbag0
(g1
g2
Ntp612
Rp613
(dp614
g6
Nsg7
I1
sg8
I2
sg9
(lp615
g0
(g45
g2
Ntp616
Rp617
(dp618
g6
Nsg7
I0
sg8
I1
sg9
Nsg28
(lp619
sbag0
(g23
g2
Ntp620
Rp621
(dp622
g27
F98.75
sg28
(lp623
sg9
Nsg6
Nsg30
F99.5
sg7
I0
sg8
I0
sg31
I43
sg32
F98.0
sbasg28
(F0.5
(F98.0
F98.75
F99.5
tp624
F0.5
tp625
sbasg28
(F0.0
(F97.0
F98.0
F99.5
tp626
F1.0
tp627
sbag0
(g1
g2
Ntp628
Rp629
(dp630
g6
Nsg7
I1
sg8
I2
sg9
(lp631
g0
(g45
g2
Ntp632
Rp633
(dp634
g6
Nsg7
I0
sg8
I1
sg9
Nsg28
(lp635
sbag0
(g23
g2
Ntp636
Rp637
(dp638
g27
F99.5
sg28
(lp639
sg9
Nsg6
Nsg30
F100.5
sg7
I0
sg8
I0
sg31
I44
sg32
F98.75
sbasg28
(F0.5
(F98.75
F99.5
F100.5
tp640
F0.5
tp641
sbasg28
(F0.0
(F97.0
F98.0
F100.5
tp642
F1.0
tp643
sbasg28
(F0.25
(F87.5
F97.0
F100.5
tp644
F0.75
tp645
sbag0
(g1
g2
Ntp646
Rp647
(dp648
g6
F4.0
sg7
I3
sg8
I2
sg9
(lp649
g0
(g1
g2
Ntp650
Rp651
(dp652
g6
F2.0
sg7
I2
sg8
I2
sg9
(lp653
g0
(g1
g2
Ntp654
Rp655
(dp656
g6
Nsg7
I1
sg8
I2
sg9
(lp657
g0
(g45
g2
Ntp658
Rp659
(dp660
g6
Nsg7
I0
sg8
I1
sg9
Nsg28
(lp661
sbag0
(g23
g2
Ntp662
Rp663
(dp664
g27
F100.5
sg28
(lp665
sg9
Nsg6
Nsg30
F101.5
sg7
I0
sg8
I0
sg31
I45
sg32
F99.5
sbasg28
(F0.5
(F99.5
F100.5
F101.5
tp666
F0.5
tp667
sbag0
(g1
g2
Ntp668
Rp669
(dp670
g6
Nsg7
I1
sg8
I2
sg9
(lp671
g0
(g45
g2
Ntp672
Rp673
(dp674
g6
Nsg7
I0
sg8
I1
sg9
Nsg28
(lp675
sbag0
(g23
g2
Ntp676
Rp677
(dp678
g27
F101.5
sg28
(lp679
sg9
Nsg6
Nsg30
F102.5
sg7
I0
sg8
I0
sg31
I46
sg32
F100.5
sbasg28
(F0.5
(F100.5
F101.5
F102.5
tp680
F0.5
tp681
sbasg28
(F0.25
(F99.5
F100.5
F102.5
tp682
F0.75
tp683
sbag0
(g1
g2
Ntp684
Rp685
(dp686
g6
Nsg7
I2
sg8
I2
sg9
(lp687
g0
(g1
g2
Ntp688
Rp689
(dp690
g6
Nsg7
I1
sg8
I2
sg9
(lp691
g0
(g45
g2
Ntp692
Rp693
(dp694
g6
Nsg7
I0
sg8
I1
sg9
Nsg28
(lp695
sbag0
(g23
g2
Ntp696
Rp697
(dp698
g27
F102.5
sg28
(lp699
sg9
Nsg6
Nsg30
F104.0
sg7
I0
sg8
I0
sg31
I47
sg32
F101.5
sbasg28
(F0.5
(F101.5
F102.5
F104.0
tp700
F0.5
tp701
sbag0
(g45
g2
Ntp702
Rp703
(dp704
g6
Nsg7
I0
sg8
I1
sg9
Nsg28
(lp705
sbasg28
(F0.25
(F101.5
F102.5
F104.0
tp706
F0.75
tp707
sbasg28
(F0.125
(F99.5
F100.5
F104.0
tp708
F0.875
tp709
sbasg28
(F0.125
(F87.5
F97.0
F104.0
tp710
F0.875
tp711
sbag0
(g23
g2
Ntp712
Rp713
(dp714
g27
F104.0
sg28
(lp715
sg9
Nsg6
Nsg30
F112.5
sg7
I0
sg8
I0
sg31
I48
sg32
F102.5
sbasg28
(F0.0625
(F87.5
F97.0
F112.5
tp716
F0.9375
tp717
sbag0
(g1
g2
Ntp718
Rp719
(dp720
g6
F16.0
sg7
I5
sg8
I2
sg9
(lp721
g0
(g1
g2
Ntp722
Rp723
(dp724
g6
F8.0
sg7
I4
sg8
I2
sg9
(lp725
g0
(g1
g2
Ntp726
Rp727
(dp728
g6
F4.0
sg7
I3
sg8
I2
sg9
(lp729
g0
(g1
g2
Ntp730
Rp731
(dp732
g6
F2.0
sg7
I2
sg8
I2
sg9
(lp733
g0
(g1
g2
Ntp734
Rp735
(dp736
g6
Nsg7
I1
sg8
I2
sg9
(lp737
g0
(g45
g2
Ntp738
Rp739
(dp740
g6
Nsg7
I0
sg8
I1
sg9
Nsg28
(lp741
sbag0
(g23
g2
Ntp742
Rp743
(dp744
g27
F112.5
sg28
(lp745
sg9
Nsg6
Nsg30
F113.5
sg7
I0
sg8
I0
sg31
I49
sg32
F104.0
sbasg28
(F0.5
(F104.0
F112.5
F113.5
tp746
F0.5
tp747
sbag0
(g1
g2
Ntp748
Rp749
(dp750
g6
Nsg7
I1
sg8
I2
sg9
(lp751
g0
(g45
g2
Ntp752
Rp753
(dp754
g6
Nsg7
I0
sg8
I1
sg9
Nsg28
(lp755
sbag0
(g23
g2
Ntp756
Rp757
(dp758
g27
F113.5
sg28
(lp759
sg9
Nsg6
Nsg30
F114.5
sg7
I0
sg8
I0
sg31
I50
sg32
F112.5
sbasg28
(F0.5
(F112.5
F113.5
F114.5
tp760
F0.5
tp761
sbasg28
(F0.25
(F104.0
F112.5
F114.5
tp762
F0.75
tp763
sbag0
(g1
g2
Ntp764
Rp765
(dp766
g6
F2.0
sg7
I2
sg8
I2
sg9
(lp767
g0
(g1
g2
Ntp768
Rp769
(dp770
g6
Nsg7
I1
sg8
I2
sg9
(lp771
g0
(g45
g2
Ntp772
Rp773
(dp774
g6
Nsg7
I0
sg8
I1
sg9
Nsg28
(lp775
sbag0
(g23
g2
Ntp776
Rp777
(dp778
g27
F114.5
sg28
(lp779
sg9
Nsg6
Nsg30
F115.5
sg7
I0
sg8
I0
sg31
I51
sg32
F113.5
sbasg28
(F0.5
(F113.5
F114.5
F115.5
tp780
F0.5
tp781
sbag0
(g1
g2
Ntp782
Rp783
(dp784
g6
Nsg7
I1
sg8
I2
sg9
(lp785
g0
(g45
g2
Ntp786
Rp787
(dp788
g6
Nsg7
I0
sg8
I1
sg9
Nsg28
(lp789
sbag0
(g23
g2
Ntp790
Rp791
(dp792
g27
F115.5
sg28
(lp793
sg9
Nsg6
Nsg30
F116.5
sg7
I0
sg8
I0
sg31
I52
sg32
F114.5
sbasg28
(F0.5
(F114.5
F115.5
F116.5
tp794
F0.5
tp795
sbasg28
(F0.25
(F113.5
F114.5
F116.5
tp796
F0.75
tp797
sbasg28
(F0.125
(F104.0
F112.5
F116.5
tp798
F0.875
tp799
sbag0
(g1
g2
Ntp800
Rp801
(dp802
g6
F4.0
sg7
I3
sg8
I2
sg9
(lp803
g0
(g1
g2
Ntp804
Rp805
(dp806
g6
Nsg7
I2
sg8
I2
sg9
(lp807
g0
(g1
g2
Ntp808
Rp809
(dp810
g6
Nsg7
I1
sg8
I2
sg9
(lp811
g0
(g45
g2
Ntp812
Rp813
(dp814
g6
Nsg7
I0
sg8
I1
sg9
Nsg28
(lp815
sbag0
(g23
g2
Ntp816
Rp817
(dp818
g27
F116.5
sg28
(lp819
sg9
Nsg6
Nsg30
F118.0
sg7
I0
sg8
I0
sg31
I53
sg32
F115.5
sbasg28
(F0.5
(F115.5
F116.5
F118.0
tp820
F0.5
tp821
sbag0
(g45
g2
Ntp822
Rp823
(dp824
g6
Nsg7
I0
sg8
I1
sg9
Nsg28
(lp825
sbasg28
(F0.25
(F115.5
F116.5
F118.0
tp826
F0.75
tp827
sbag0
(g1
g2
Ntp828
Rp829
(dp830
g6
F2.0
sg7
I1
sg8
I2
sg9
(lp831
g0
(g23
g2
Ntp832
Rp833
(dp834
g27
F118.0
sg28
(lp835
sg9
Nsg6
Nsg30
F119.0
sg7
I0
sg8
I0
sg31
I54
sg32
F116.5
sbag0
(g23
g2
Ntp836
Rp837
(dp838
g27
F119.0
sg28
(lp839
sg9
Nsg6
Nsg30
F128.0
sg7
I0
sg8
I0
sg31
I55
sg32
F118.0
sbasg28
(F0.0
(F116.5
F118.0
F128.0
tp840
F1.0
tp841
sbasg28
(F0.125
(F115.5
F116.5
F128.0
tp842
F0.875
tp843
sbasg28
(F0.0625
(F104.0
F112.5
F128.0
tp844
F0.9375
tp845
sbag0
(g45
g2
Ntp846
Rp847
(dp848
g6
Nsg7
I0
sg8
I1
sg9
Nsg28
(lp849
sbasg28
(F0.03125
(F104.0
F112.5
F128.0
tp850
F0.96875
tp851
sbasg28
(F0.03125
(F87.5
F97.0
F128.0
tp852
F0.96875
tp853
sbasg28
(F0.0
(F62.0
F64.0
F128.0
tp854
F1.0
tp855
sbasg28
(F0.0
(I0
F0.0
F128.0
tp856
F1.0
tp857
sb.