ccopy_reg
_reconstructor
p0
(cjazzr.rhythm.symbol
Symbol
p1
c__builtin__
object
p2
Ntp3
Rp4
(dp5
S'length'
p6
F128.0
sS'depth'
p7
I8
sS'type'
p8
I2
sS'children'
p9
(lp10
g0
(g1
g2
Ntp11
Rp12
(dp13
g6
F64.0
sg7
I7
sg8
I2
sg9
(lp14
g0
(g1
g2
Ntp15
Rp16
(dp17
g6
F32.0
sg7
I6
sg8
I2
sg9
(lp18
g0
(g1
g2
Ntp19
Rp20
(dp21
g6
F16.0
sg7
I5
sg8
I2
sg9
(lp22
g0
(g1
g2
Ntp23
Rp24
(dp25
g6
F8.0
sg7
I4
sg8
I2
sg9
(lp26
g0
(g1
g2
Ntp27
Rp28
(dp29
g6
Nsg7
I2
sg8
I2
sg9
(lp30
g0
(cjazzr.rhythm.symbol
Tie
p31
g2
Ntp32
Rp33
(dp34
g6
Nsg7
I0
sg8
I1
sg9
NsS'features'
p35
(lp36
sbag0
(g1
g2
Ntp37
Rp38
(dp39
g6
Nsg7
I1
sg8
I2
sg9
(lp40
g0
(g31
g2
Ntp41
Rp42
(dp43
g6
Nsg7
I0
sg8
I1
sg9
Nsg35
(lp44
sbag0
(cjazzr.rhythm.symbol
Onset
p45
g2
Ntp46
Rp47
(dp48
S'on'
p49
F3.0
sg35
(lp50
sg9
Nsg6
NsS'next'
p51
F4.0
sg7
I0
sg8
I0
sS'annotation'
p52
I1
sS'previous'
p53
I0
sbasg35
(F0.5
(I0
F3.0
F4.0
tp54
F0.5
tp55
sbasg35
(F0.75
(I0
F3.0
F4.0
tp56
F0.25
tp57
sbag0
(g1
g2
Ntp58
Rp59
(dp60
g6
F4.0
sg7
I3
sg8
I2
sg9
(lp61
g0
(g45
g2
Ntp62
Rp63
(dp64
g49
F4.0
sg35
(lp65
sg9
Nsg6
Nsg51
F7.0
sg7
I0
sg8
I0
sg52
I2
sg53
F3.0
sbag0
(g1
g2
Ntp66
Rp67
(dp68
g6
F2.0
sg7
I2
sg8
I2
sg9
(lp69
g0
(g31
g2
Ntp70
Rp71
(dp72
g6
Nsg7
I0
sg8
I1
sg9
Nsg35
(lp73
sbag0
(g1
g2
Ntp74
Rp75
(dp76
g6
F1.0
sg7
I1
sg8
I2
sg9
(lp77
g0
(g45
g2
Ntp78
Rp79
(dp80
g49
F7.0
sg35
(lp81
sg9
Nsg6
Nsg51
F7.5
sg7
I0
sg8
I0
sg52
I3
sg53
F4.0
sbag0
(g45
g2
Ntp82
Rp83
(dp84
g49
F7.5
sg35
(lp85
sg9
Nsg6
Nsg51
F8.0
sg7
I0
sg8
I0
sg52
I4
sg53
F7.0
sbasg35
(F0.0
(F4.0
F7.0
F8.0
tp86
F1.0
tp87
sbasg35
(F0.5
(F4.0
F7.0
F8.0
tp88
F0.5
tp89
sbasg35
(F0.0
(F3.0
F4.0
F8.0
tp90
F1.0
tp91
sbasg35
(F0.375
(I0
F3.0
F8.0
tp92
F0.625
tp93
sbag0
(g1
g2
Ntp94
Rp95
(dp96
g6
F8.0
sg7
I4
sg8
I2
sg9
(lp97
g0
(g1
g2
Ntp98
Rp99
(dp100
g6
F4.0
sg7
I3
sg8
I2
sg9
(lp101
g0
(g45
g2
Ntp102
Rp103
(dp104
g49
F8.0
sg35
(lp105
sg9
Nsg6
Nsg51
F11.0
sg7
I0
sg8
I0
sg52
I5
sg53
F7.5
sbag0
(g1
g2
Ntp106
Rp107
(dp108
g6
F2.0
sg7
I2
sg8
I2
sg9
(lp109
g0
(g31
g2
Ntp110
Rp111
(dp112
g6
Nsg7
I0
sg8
I1
sg9
Nsg35
(lp113
sbag0
(g1
g2
Ntp114
Rp115
(dp116
g6
F1.0
sg7
I1
sg8
I2
sg9
(lp117
g0
(g45
g2
Ntp118
Rp119
(dp120
g49
F11.0
sg35
(lp121
sg9
Nsg6
Nsg51
F11.5
sg7
I0
sg8
I0
sg52
I6
sg53
F8.0
sbag0
(g45
g2
Ntp122
Rp123
(dp124
g49
F11.5
sg35
(lp125
sg9
Nsg6
Nsg51
F12.0
sg7
I0
sg8
I0
sg52
I7
sg53
F11.0
sbasg35
(F0.0
(F8.0
F11.0
F12.0
tp126
F1.0
tp127
sbasg35
(F0.5
(F8.0
F11.0
F12.0
tp128
F0.5
tp129
sbasg35
(F0.0
(F7.5
F8.0
F12.0
tp130
F1.0
tp131
sbag0
(g45
g2
Ntp132
Rp133
(dp134
g49
F12.0
sg35
(lp135
sg9
Nsg6
Nsg51
F19.0
sg7
I0
sg8
I0
sg52
I8
sg53
F11.5
sbasg35
(F0.0
(F7.5
F8.0
F19.0
tp136
F1.0
tp137
sbasg35
(F0.1875
(I0
F3.0
F19.0
tp138
F0.8125
tp139
sbag0
(g1
g2
Ntp140
Rp141
(dp142
g6
F16.0
sg7
I5
sg8
I2
sg9
(lp143
g0
(g1
g2
Ntp144
Rp145
(dp146
g6
F8.0
sg7
I4
sg8
I2
sg9
(lp147
g0
(g1
g2
Ntp148
Rp149
(dp150
g6
Nsg7
I2
sg8
I2
sg9
(lp151
g0
(g31
g2
Ntp152
Rp153
(dp154
g6
Nsg7
I0
sg8
I1
sg9
Nsg35
(lp155
sbag0
(g1
g2
Ntp156
Rp157
(dp158
g6
Nsg7
I1
sg8
I2
sg9
(lp159
g0
(g31
g2
Ntp160
Rp161
(dp162
g6
Nsg7
I0
sg8
I1
sg9
Nsg35
(lp163
sbag0
(g45
g2
Ntp164
Rp165
(dp166
g49
F19.0
sg35
(lp167
sg9
Nsg6
Nsg51
F20.0
sg7
I0
sg8
I0
sg52
I9
sg53
F12.0
sbasg35
(F0.5
(F12.0
F19.0
F20.0
tp168
F0.5
tp169
sbasg35
(F0.75
(F12.0
F19.0
F20.0
tp170
F0.25
tp171
sbag0
(g1
g2
Ntp172
Rp173
(dp174
g6
F4.0
sg7
I3
sg8
I2
sg9
(lp175
g0
(g45
g2
Ntp176
Rp177
(dp178
g49
F20.0
sg35
(lp179
sg9
Nsg6
Nsg51
F22.5
sg7
I0
sg8
I0
sg52
I10
sg53
F19.0
sbag0
(g1
g2
Ntp180
Rp181
(dp182
g6
F2.0
sg7
I2
sg8
I2
sg9
(lp183
g0
(g1
g2
Ntp184
Rp185
(dp186
g6
Nsg7
I1
sg8
I2
sg9
(lp187
g0
(g31
g2
Ntp188
Rp189
(dp190
g6
Nsg7
I0
sg8
I1
sg9
Nsg35
(lp191
sbag0
(g45
g2
Ntp192
Rp193
(dp194
g49
F22.5
sg35
(lp195
sg9
Nsg6
Nsg51
F23.5
sg7
I0
sg8
I0
sg52
I11
sg53
F20.0
sbasg35
(F0.5
(F20.0
F22.5
F23.5
tp196
F0.5
tp197
sbag0
(g1
g2
Ntp198
Rp199
(dp200
g6
Nsg7
I1
sg8
I2
sg9
(lp201
g0
(g31
g2
Ntp202
Rp203
(dp204
g6
Nsg7
I0
sg8
I1
sg9
Nsg35
(lp205
sbag0
(g45
g2
Ntp206
Rp207
(dp208
g49
F23.5
sg35
(lp209
sg9
Nsg6
Nsg51
F24.0
sg7
I0
sg8
I0
sg52
I12
sg53
F22.5
sbasg35
(F0.5
(F22.5
F23.5
F24.0
tp210
F0.5
tp211
sbasg35
(F0.25
(F20.0
F22.5
F24.0
tp212
F0.75
tp213
sbasg35
(F0.0
(F19.0
F20.0
F24.0
tp214
F1.0
tp215
sbasg35
(F0.375
(F12.0
F19.0
F24.0
tp216
F0.625
tp217
sbag0
(g1
g2
Ntp218
Rp219
(dp220
g6
F8.0
sg7
I4
sg8
I2
sg9
(lp221
g0
(g1
g2
Ntp222
Rp223
(dp224
g6
F4.0
sg7
I3
sg8
I2
sg9
(lp225
g0
(g45
g2
Ntp226
Rp227
(dp228
g49
F24.0
sg35
(lp229
sg9
Nsg6
Nsg51
F27.0
sg7
I0
sg8
I0
sg52
I13
sg53
F23.5
sbag0
(g1
g2
Ntp230
Rp231
(dp232
g6
F2.0
sg7
I2
sg8
I2
sg9
(lp233
g0
(g31
g2
Ntp234
Rp235
(dp236
g6
Nsg7
I0
sg8
I1
sg9
Nsg35
(lp237
sbag0
(g1
g2
Ntp238
Rp239
(dp240
g6
F1.0
sg7
I1
sg8
I2
sg9
(lp241
g0
(g45
g2
Ntp242
Rp243
(dp244
g49
F27.0
sg35
(lp245
sg9
Nsg6
Nsg51
F27.5
sg7
I0
sg8
I0
sg52
I14
sg53
F24.0
sbag0
(g45
g2
Ntp246
Rp247
(dp248
g49
F27.5
sg35
(lp249
sg9
Nsg6
Nsg51
F28.0
sg7
I0
sg8
I0
sg52
I15
sg53
F27.0
sbasg35
(F0.0
(F24.0
F27.0
F28.0
tp250
F1.0
tp251
sbasg35
(F0.5
(F24.0
F27.0
F28.0
tp252
F0.5
tp253
sbasg35
(F0.0
(F23.5
F24.0
F28.0
tp254
F1.0
tp255
sbag0
(g45
g2
Ntp256
Rp257
(dp258
g49
F28.0
sg35
(lp259
sg9
Nsg6
Nsg51
F34.5
sg7
I0
sg8
I0
sg52
I16
sg53
F27.5
sbasg35
(F0.0
(F23.5
F24.0
F34.5
tp260
F1.0
tp261
sbasg35
(F0.1875
(F12.0
F19.0
F34.5
tp262
F0.8125
tp263
sbasg35
(F0.09375
(I0
F3.0
F34.5
tp264
F0.90625
tp265
sbag0
(g1
g2
Ntp266
Rp267
(dp268
g6
F32.0
sg7
I6
sg8
I2
sg9
(lp269
g0
(g1
g2
Ntp270
Rp271
(dp272
g6
F16.0
sg7
I5
sg8
I2
sg9
(lp273
g0
(g1
g2
Ntp274
Rp275
(dp276
g6
F8.0
sg7
I4
sg8
I2
sg9
(lp277
g0
(g1
g2
Ntp278
Rp279
(dp280
g6
F4.0
sg7
I3
sg8
I2
sg9
(lp281
g0
(g31
g2
Ntp282
Rp283
(dp284
g6
Nsg7
I0
sg8
I1
sg9
Nsg35
(lp285
sbag0
(g1
g2
Ntp286
Rp287
(dp288
g6
F2.0
sg7
I2
sg8
I2
sg9
(lp289
g0
(g1
g2
Ntp290
Rp291
(dp292
g6
Nsg7
I1
sg8
I2
sg9
(lp293
g0
(g31
g2
Ntp294
Rp295
(dp296
g6
Nsg7
I0
sg8
I1
sg9
Nsg35
(lp297
sbag0
(g45
g2
Ntp298
Rp299
(dp300
g49
F34.5
sg35
(lp301
sg9
Nsg6
Nsg51
F35.0
sg7
I0
sg8
I0
sg52
I18
sg53
F28.0
sbasg35
(F0.5
(F28.0
F34.5
F35.0
tp302
F0.5
tp303
sbag0
(g1
g2
Ntp304
Rp305
(dp306
g6
F1.0
sg7
I1
sg8
I2
sg9
(lp307
g0
(g45
g2
Ntp308
Rp309
(dp310
g49
F35.0
sg35
(lp311
sg9
Nsg6
Nsg51
F35.5
sg7
I0
sg8
I0
sg52
I19
sg53
F34.5
sbag0
(g45
g2
Ntp312
Rp313
(dp314
g49
F35.5
sg35
(lp315
sg9
Nsg6
Nsg51
F36.0
sg7
I0
sg8
I0
sg52
I20
sg53
F35.0
sbasg35
(F0.0
(F34.5
F35.0
F36.0
tp316
F1.0
tp317
sbasg35
(F0.25
(F28.0
F34.5
F36.0
tp318
F0.75
tp319
sbasg35
(F0.625
(F28.0
F34.5
F36.0
tp320
F0.375
tp321
sbag0
(g1
g2
Ntp322
Rp323
(dp324
g6
F4.0
sg7
I3
sg8
I2
sg9
(lp325
g0
(g1
g2
Ntp326
Rp327
(dp328
g6
F2.0
sg7
I2
sg8
I2
sg9
(lp329
g0
(g45
g2
Ntp330
Rp331
(dp332
g49
F36.0
sg35
(lp333
sg9
Nsg6
Nsg51
F37.5
sg7
I0
sg8
I0
sg52
I21
sg53
F35.5
sbag0
(g1
g2
Ntp334
Rp335
(dp336
g6
Nsg7
I1
sg8
I2
sg9
(lp337
g0
(g31
g2
Ntp338
Rp339
(dp340
g6
Nsg7
I0
sg8
I1
sg9
Nsg35
(lp341
sbag0
(g45
g2
Ntp342
Rp343
(dp344
g49
F37.5
sg35
(lp345
sg9
Nsg6
Nsg51
F38.0
sg7
I0
sg8
I0
sg52
I22
sg53
F36.0
sbasg35
(F0.5
(F36.0
F37.5
F38.0
tp346
F0.5
tp347
sbasg35
(F0.0
(F35.5
F36.0
F38.0
tp348
F1.0
tp349
sbag0
(g45
g2
Ntp350
Rp351
(dp352
g49
F38.0
sg35
(lp353
sg9
Nsg6
Nsg51
F42.5
sg7
I0
sg8
I0
sg52
I23
sg53
F37.5
sbasg35
(F0.0
(F35.5
F36.0
F42.5
tp354
F1.0
tp355
sbasg35
(F0.3125
(F28.0
F34.5
F42.5
tp356
F0.6875
tp357
sbag0
(g1
g2
Ntp358
Rp359
(dp360
g6
F8.0
sg7
I4
sg8
I2
sg9
(lp361
g0
(g1
g2
Ntp362
Rp363
(dp364
g6
F4.0
sg7
I3
sg8
I2
sg9
(lp365
g0
(g31
g2
Ntp366
Rp367
(dp368
g6
Nsg7
I0
sg8
I1
sg9
Nsg35
(lp369
sbag0
(g1
g2
Ntp370
Rp371
(dp372
g6
F2.0
sg7
I2
sg8
I2
sg9
(lp373
g0
(g1
g2
Ntp374
Rp375
(dp376
g6
Nsg7
I1
sg8
I2
sg9
(lp377
g0
(g31
g2
Ntp378
Rp379
(dp380
g6
Nsg7
I0
sg8
I1
sg9
Nsg35
(lp381
sbag0
(g45
g2
Ntp382
Rp383
(dp384
g49
F42.5
sg35
(lp385
sg9
Nsg6
Nsg51
F43.0
sg7
I0
sg8
I0
sg52
I25
sg53
F38.0
sbasg35
(F0.5
(F38.0
F42.5
F43.0
tp386
F0.5
tp387
sbag0
(g1
g2
Ntp388
Rp389
(dp390
g6
F1.0
sg7
I1
sg8
I2
sg9
(lp391
g0
(g45
g2
Ntp392
Rp393
(dp394
g49
F43.0
sg35
(lp395
sg9
Nsg6
Nsg51
F43.5
sg7
I0
sg8
I0
sg52
I26
sg53
F42.5
sbag0
(g45
g2
Ntp396
Rp397
(dp398
g49
F43.5
sg35
(lp399
sg9
Nsg6
Nsg51
F44.0
sg7
I0
sg8
I0
sg52
I27
sg53
F43.0
sbasg35
(F0.0
(F42.5
F43.0
F44.0
tp400
F1.0
tp401
sbasg35
(F0.25
(F38.0
F42.5
F44.0
tp402
F0.75
tp403
sbasg35
(F0.625
(F38.0
F42.5
F44.0
tp404
F0.375
tp405
sbag0
(g1
g2
Ntp406
Rp407
(dp408
g6
F4.0
sg7
I3
sg8
I2
sg9
(lp409
g0
(g1
g2
Ntp410
Rp411
(dp412
g6
F2.0
sg7
I2
sg8
I2
sg9
(lp413
g0
(g45
g2
Ntp414
Rp415
(dp416
g49
F44.0
sg35
(lp417
sg9
Nsg6
Nsg51
F45.5
sg7
I0
sg8
I0
sg52
I28
sg53
F43.5
sbag0
(g1
g2
Ntp418
Rp419
(dp420
g6
Nsg7
I1
sg8
I2
sg9
(lp421
g0
(g31
g2
Ntp422
Rp423
(dp424
g6
Nsg7
I0
sg8
I1
sg9
Nsg35
(lp425
sbag0
(g45
g2
Ntp426
Rp427
(dp428
g49
F45.5
sg35
(lp429
sg9
Nsg6
Nsg51
F46.0
sg7
I0
sg8
I0
sg52
I29
sg53
F44.0
sbasg35
(F0.5
(F44.0
F45.5
F46.0
tp430
F0.5
tp431
sbasg35
(F0.0
(F43.5
F44.0
F46.0
tp432
F1.0
tp433
sbag0
(g45
g2
Ntp434
Rp435
(dp436
g49
F46.0
sg35
(lp437
sg9
Nsg6
Nsg51
F50.5
sg7
I0
sg8
I0
sg52
I30
sg53
F45.5
sbasg35
(F0.0
(F43.5
F44.0
F50.5
tp438
F1.0
tp439
sbasg35
(F0.3125
(F38.0
F42.5
F50.5
tp440
F0.6875
tp441
sbasg35
(F0.15625
(F28.0
F34.5
F50.5
tp442
F0.84375
tp443
sbag0
(g1
g2
Ntp444
Rp445
(dp446
g6
F16.0
sg7
I5
sg8
I2
sg9
(lp447
g0
(g1
g2
Ntp448
Rp449
(dp450
g6
F8.0
sg7
I4
sg8
I2
sg9
(lp451
g0
(g1
g2
Ntp452
Rp453
(dp454
g6
F4.0
sg7
I3
sg8
I2
sg9
(lp455
g0
(g31
g2
Ntp456
Rp457
(dp458
g6
Nsg7
I0
sg8
I1
sg9
Nsg35
(lp459
sbag0
(g1
g2
Ntp460
Rp461
(dp462
g6
F2.0
sg7
I2
sg8
I2
sg9
(lp463
g0
(g1
g2
Ntp464
Rp465
(dp466
g6
Nsg7
I1
sg8
I2
sg9
(lp467
g0
(g31
g2
Ntp468
Rp469
(dp470
g6
Nsg7
I0
sg8
I1
sg9
Nsg35
(lp471
sbag0
(g45
g2
Ntp472
Rp473
(dp474
g49
F50.5
sg35
(lp475
sg9
Nsg6
Nsg51
F51.0
sg7
I0
sg8
I0
sg52
I32
sg53
F46.0
sbasg35
(F0.5
(F46.0
F50.5
F51.0
tp476
F0.5
tp477
sbag0
(g1
g2
Ntp478
Rp479
(dp480
g6
F1.0
sg7
I1
sg8
I2
sg9
(lp481
g0
(g45
g2
Ntp482
Rp483
(dp484
g49
F51.0
sg35
(lp485
sg9
Nsg6
Nsg51
F51.5
sg7
I0
sg8
I0
sg52
I33
sg53
F50.5
sbag0
(g45
g2
Ntp486
Rp487
(dp488
g49
F51.5
sg35
(lp489
sg9
Nsg6
Nsg51
F52.0
sg7
I0
sg8
I0
sg52
I34
sg53
F51.0
sbasg35
(F0.0
(F50.5
F51.0
F52.0
tp490
F1.0
tp491
sbasg35
(F0.25
(F46.0
F50.5
F52.0
tp492
F0.75
tp493
sbasg35
(F0.625
(F46.0
F50.5
F52.0
tp494
F0.375
tp495
sbag0
(g1
g2
Ntp496
Rp497
(dp498
g6
F4.0
sg7
I3
sg8
I2
sg9
(lp499
g0
(g1
g2
Ntp500
Rp501
(dp502
g6
F2.0
sg7
I2
sg8
I2
sg9
(lp503
g0
(g45
g2
Ntp504
Rp505
(dp506
g49
F52.0
sg35
(lp507
sg9
Nsg6
Nsg51
F53.5
sg7
I0
sg8
I0
sg52
I35
sg53
F51.5
sbag0
(g1
g2
Ntp508
Rp509
(dp510
g6
Nsg7
I1
sg8
I2
sg9
(lp511
g0
(g31
g2
Ntp512
Rp513
(dp514
g6
Nsg7
I0
sg8
I1
sg9
Nsg35
(lp515
sbag0
(g45
g2
Ntp516
Rp517
(dp518
g49
F53.5
sg35
(lp519
sg9
Nsg6
Nsg51
F54.0
sg7
I0
sg8
I0
sg52
I36
sg53
F52.0
sbasg35
(F0.5
(F52.0
F53.5
F54.0
tp520
F0.5
tp521
sbasg35
(F0.0
(F51.5
F52.0
F54.0
tp522
F1.0
tp523
sbag0
(g45
g2
Ntp524
Rp525
(dp526
g49
F54.0
sg35
(lp527
sg9
Nsg6
Nsg51
F58.5
sg7
I0
sg8
I0
sg52
I37
sg53
F53.5
sbasg35
(F0.0
(F51.5
F52.0
F58.5
tp528
F1.0
tp529
sbasg35
(F0.3125
(F46.0
F50.5
F58.5
tp530
F0.6875
tp531
sbag0
(g1
g2
Ntp532
Rp533
(dp534
g6
F8.0
sg7
I4
sg8
I2
sg9
(lp535
g0
(g1
g2
Ntp536
Rp537
(dp538
g6
F4.0
sg7
I3
sg8
I2
sg9
(lp539
g0
(g31
g2
Ntp540
Rp541
(dp542
g6
Nsg7
I0
sg8
I1
sg9
Nsg35
(lp543
sbag0
(g1
g2
Ntp544
Rp545
(dp546
g6
F2.0
sg7
I2
sg8
I2
sg9
(lp547
g0
(g1
g2
Ntp548
Rp549
(dp550
g6
Nsg7
I1
sg8
I2
sg9
(lp551
g0
(g31
g2
Ntp552
Rp553
(dp554
g6
Nsg7
I0
sg8
I1
sg9
Nsg35
(lp555
sbag0
(g45
g2
Ntp556
Rp557
(dp558
g49
F58.5
sg35
(lp559
sg9
Nsg6
Nsg51
F59.0
sg7
I0
sg8
I0
sg52
I39
sg53
F54.0
sbasg35
(F0.5
(F54.0
F58.5
F59.0
tp560
F0.5
tp561
sbag0
(g1
g2
Ntp562
Rp563
(dp564
g6
F1.0
sg7
I1
sg8
I2
sg9
(lp565
g0
(g45
g2
Ntp566
Rp567
(dp568
g49
F59.0
sg35
(lp569
sg9
Nsg6
Nsg51
F59.5
sg7
I0
sg8
I0
sg52
I40
sg53
F58.5
sbag0
(g45
g2
Ntp570
Rp571
(dp572
g49
F59.5
sg35
(lp573
sg9
Nsg6
Nsg51
F60.0
sg7
I0
sg8
I0
sg52
I41
sg53
F59.0
sbasg35
(F0.0
(F58.5
F59.0
F60.0
tp574
F1.0
tp575
sbasg35
(F0.25
(F54.0
F58.5
F60.0
tp576
F0.75
tp577
sbasg35
(F0.625
(F54.0
F58.5
F60.0
tp578
F0.375
tp579
sbag0
(g45
g2
Ntp580
Rp581
(dp582
g49
F60.0
sg35
(lp583
sg9
Nsg6
Nsg51
F67.0
sg7
I0
sg8
I0
sg52
I42
sg53
F59.5
sbasg35
(F0.3125
(F54.0
F58.5
F67.0
tp584
F0.6875
tp585
sbasg35
(F0.15625
(F46.0
F50.5
F67.0
tp586
F0.84375
tp587
sbasg35
(F0.078125
(F28.0
F34.5
F67.0
tp588
F0.921875
tp589
sbasg35
(F0.046875
(I0
F3.0
F67.0
tp590
F0.953125
tp591
sbag0
(g1
g2
Ntp592
Rp593
(dp594
g6
F64.0
sg7
I7
sg8
I2
sg9
(lp595
g0
(g1
g2
Ntp596
Rp597
(dp598
g6
F32.0
sg7
I6
sg8
I2
sg9
(lp599
g0
(g1
g2
Ntp600
Rp601
(dp602
g6
F16.0
sg7
I5
sg8
I2
sg9
(lp603
g0
(g1
g2
Ntp604
Rp605
(dp606
g6
F8.0
sg7
I4
sg8
I2
sg9
(lp607
g0
(g1
g2
Ntp608
Rp609
(dp610
g6
Nsg7
I2
sg8
I2
sg9
(lp611
g0
(g31
g2
Ntp612
Rp613
(dp614
g6
Nsg7
I0
sg8
I1
sg9
Nsg35
(lp615
sbag0
(g1
g2
Ntp616
Rp617
(dp618
g6
Nsg7
I1
sg8
I2
sg9
(lp619
g0
(g31
g2
Ntp620
Rp621
(dp622
g6
Nsg7
I0
sg8
I1
sg9
Nsg35
(lp623
sbag0
(g45
g2
Ntp624
Rp625
(dp626
g49
F67.0
sg35
(lp627
sg9
Nsg6
Nsg51
F68.0
sg7
I0
sg8
I0
sg52
I43
sg53
F60.0
sbasg35
(F0.5
(F60.0
F67.0
F68.0
tp628
F0.5
tp629
sbasg35
(F0.75
(F60.0
F67.0
F68.0
tp630
F0.25
tp631
sbag0
(g1
g2
Ntp632
Rp633
(dp634
g6
F4.0
sg7
I3
sg8
I2
sg9
(lp635
g0
(g45
g2
Ntp636
Rp637
(dp638
g49
F68.0
sg35
(lp639
sg9
Nsg6
Nsg51
F71.0
sg7
I0
sg8
I0
sg52
I44
sg53
F67.0
sbag0
(g1
g2
Ntp640
Rp641
(dp642
g6
F2.0
sg7
I2
sg8
I2
sg9
(lp643
g0
(g31
g2
Ntp644
Rp645
(dp646
g6
Nsg7
I0
sg8
I1
sg9
Nsg35
(lp647
sbag0
(g1
g2
Ntp648
Rp649
(dp650
g6
F1.0
sg7
I1
sg8
I2
sg9
(lp651
g0
(g45
g2
Ntp652
Rp653
(dp654
g49
F71.0
sg35
(lp655
sg9
Nsg6
Nsg51
F71.5
sg7
I0
sg8
I0
sg52
I45
sg53
F68.0
sbag0
(g45
g2
Ntp656
Rp657
(dp658
g49
F71.5
sg35
(lp659
sg9
Nsg6
Nsg51
F72.0
sg7
I0
sg8
I0
sg52
I46
sg53
F71.0
sbasg35
(F0.0
(F68.0
F71.0
F72.0
tp660
F1.0
tp661
sbasg35
(F0.5
(F68.0
F71.0
F72.0
tp662
F0.5
tp663
sbasg35
(F0.0
(F67.0
F68.0
F72.0
tp664
F1.0
tp665
sbasg35
(F0.375
(F60.0
F67.0
F72.0
tp666
F0.625
tp667
sbag0
(g1
g2
Ntp668
Rp669
(dp670
g6
F8.0
sg7
I4
sg8
I2
sg9
(lp671
g0
(g1
g2
Ntp672
Rp673
(dp674
g6
F4.0
sg7
I3
sg8
I2
sg9
(lp675
g0
(g45
g2
Ntp676
Rp677
(dp678
g49
F72.0
sg35
(lp679
sg9
Nsg6
Nsg51
F74.5
sg7
I0
sg8
I0
sg52
I47
sg53
F71.5
sbag0
(g1
g2
Ntp680
Rp681
(dp682
g6
F2.0
sg7
I2
sg8
I2
sg9
(lp683
g0
(g1
g2
Ntp684
Rp685
(dp686
g6
Nsg7
I1
sg8
I2
sg9
(lp687
g0
(g31
g2
Ntp688
Rp689
(dp690
g6
Nsg7
I0
sg8
I1
sg9
Nsg35
(lp691
sbag0
(g45
g2
Ntp692
Rp693
(dp694
g49
F74.5
sg35
(lp695
sg9
Nsg6
Nsg51
F75.5
sg7
I0
sg8
I0
sg52
I48
sg53
F72.0
sbasg35
(F0.5
(F72.0
F74.5
F75.5
tp696
F0.5
tp697
sbag0
(g1
g2
Ntp698
Rp699
(dp700
g6
Nsg7
I1
sg8
I2
sg9
(lp701
g0
(g31
g2
Ntp702
Rp703
(dp704
g6
Nsg7
I0
sg8
I1
sg9
Nsg35
(lp705
sbag0
(g45
g2
Ntp706
Rp707
(dp708
g49
F75.5
sg35
(lp709
sg9
Nsg6
Nsg51
F76.0
sg7
I0
sg8
I0
sg52
I49
sg53
F74.5
sbasg35
(F0.5
(F74.5
F75.5
F76.0
tp710
F0.5
tp711
sbasg35
(F0.25
(F72.0
F74.5
F76.0
tp712
F0.75
tp713
sbasg35
(F0.0
(F71.5
F72.0
F76.0
tp714
F1.0
tp715
sbag0
(g45
g2
Ntp716
Rp717
(dp718
g49
F76.0
sg35
(lp719
sg9
Nsg6
Nsg51
F83.0
sg7
I0
sg8
I0
sg52
I50
sg53
F75.5
sbasg35
(F0.0
(F71.5
F72.0
F83.0
tp720
F1.0
tp721
sbasg35
(F0.1875
(F60.0
F67.0
F83.0
tp722
F0.8125
tp723
sbag0
(g1
g2
Ntp724
Rp725
(dp726
g6
F16.0
sg7
I5
sg8
I2
sg9
(lp727
g0
(g1
g2
Ntp728
Rp729
(dp730
g6
F8.0
sg7
I4
sg8
I2
sg9
(lp731
g0
(g1
g2
Ntp732
Rp733
(dp734
g6
Nsg7
I2
sg8
I2
sg9
(lp735
g0
(g31
g2
Ntp736
Rp737
(dp738
g6
Nsg7
I0
sg8
I1
sg9
Nsg35
(lp739
sbag0
(g1
g2
Ntp740
Rp741
(dp742
g6
Nsg7
I1
sg8
I2
sg9
(lp743
g0
(g31
g2
Ntp744
Rp745
(dp746
g6
Nsg7
I0
sg8
I1
sg9
Nsg35
(lp747
sbag0
(g45
g2
Ntp748
Rp749
(dp750
g49
F83.0
sg35
(lp751
sg9
Nsg6
Nsg51
F84.0
sg7
I0
sg8
I0
sg52
I51
sg53
F76.0
sbasg35
(F0.5
(F76.0
F83.0
F84.0
tp752
F0.5
tp753
sbasg35
(F0.75
(F76.0
F83.0
F84.0
tp754
F0.25
tp755
sbag0
(g1
g2
Ntp756
Rp757
(dp758
g6
F4.0
sg7
I3
sg8
I2
sg9
(lp759
g0
(g45
g2
Ntp760
Rp761
(dp762
g49
F84.0
sg35
(lp763
sg9
Nsg6
Nsg51
F87.0
sg7
I0
sg8
I0
sg52
I52
sg53
F83.0
sbag0
(g1
g2
Ntp764
Rp765
(dp766
g6
F2.0
sg7
I2
sg8
I2
sg9
(lp767
g0
(g31
g2
Ntp768
Rp769
(dp770
g6
Nsg7
I0
sg8
I1
sg9
Nsg35
(lp771
sbag0
(g1
g2
Ntp772
Rp773
(dp774
g6
F1.0
sg7
I1
sg8
I2
sg9
(lp775
g0
(g45
g2
Ntp776
Rp777
(dp778
g49
F87.0
sg35
(lp779
sg9
Nsg6
Nsg51
F87.5
sg7
I0
sg8
I0
sg52
I53
sg53
F84.0
sbag0
(g45
g2
Ntp780
Rp781
(dp782
g49
F87.5
sg35
(lp783
sg9
Nsg6
Nsg51
F88.0
sg7
I0
sg8
I0
sg52
I54
sg53
F87.0
sbasg35
(F0.0
(F84.0
F87.0
F88.0
tp784
F1.0
tp785
sbasg35
(F0.5
(F84.0
F87.0
F88.0
tp786
F0.5
tp787
sbasg35
(F0.0
(F83.0
F84.0
F88.0
tp788
F1.0
tp789
sbasg35
(F0.375
(F76.0
F83.0
F88.0
tp790
F0.625
tp791
sbag0
(g1
g2
Ntp792
Rp793
(dp794
g6
F8.0
sg7
I4
sg8
I2
sg9
(lp795
g0
(g1
g2
Ntp796
Rp797
(dp798
g6
F4.0
sg7
I3
sg8
I2
sg9
(lp799
g0
(g45
g2
Ntp800
Rp801
(dp802
g49
F88.0
sg35
(lp803
sg9
Nsg6
Nsg51
F91.0
sg7
I0
sg8
I0
sg52
I55
sg53
F87.5
sbag0
(g1
g2
Ntp804
Rp805
(dp806
g6
F2.0
sg7
I2
sg8
I2
sg9
(lp807
g0
(g31
g2
Ntp808
Rp809
(dp810
g6
Nsg7
I0
sg8
I1
sg9
Nsg35
(lp811
sbag0
(g1
g2
Ntp812
Rp813
(dp814
g6
F1.0
sg7
I1
sg8
I2
sg9
(lp815
g0
(g45
g2
Ntp816
Rp817
(dp818
g49
F91.0
sg35
(lp819
sg9
Nsg6
Nsg51
F91.5
sg7
I0
sg8
I0
sg52
I56
sg53
F88.0
sbag0
(g45
g2
Ntp820
Rp821
(dp822
g49
F91.5
sg35
(lp823
sg9
Nsg6
Nsg51
F92.0
sg7
I0
sg8
I0
sg52
I57
sg53
F91.0
sbasg35
(F0.0
(F88.0
F91.0
F92.0
tp824
F1.0
tp825
sbasg35
(F0.5
(F88.0
F91.0
F92.0
tp826
F0.5
tp827
sbasg35
(F0.0
(F87.5
F88.0
F92.0
tp828
F1.0
tp829
sbag0
(g45
g2
Ntp830
Rp831
(dp832
g49
F92.0
sg35
(lp833
sg9
Nsg6
Nsg51
F100.0
sg7
I0
sg8
I0
sg52
I58
sg53
F91.5
sbasg35
(F0.0
(F87.5
F88.0
F100.0
tp834
F1.0
tp835
sbasg35
(F0.1875
(F76.0
F83.0
F100.0
tp836
F0.8125
tp837
sbasg35
(F0.09375
(F60.0
F67.0
F100.0
tp838
F0.90625
tp839
sbag0
(g1
g2
Ntp840
Rp841
(dp842
g6
F32.0
sg7
I6
sg8
I2
sg9
(lp843
g0
(g1
g2
Ntp844
Rp845
(dp846
g6
F16.0
sg7
I5
sg8
I2
sg9
(lp847
g0
(g1
g2
Ntp848
Rp849
(dp850
g6
F8.0
sg7
I4
sg8
I2
sg9
(lp851
g0
(g31
g2
Ntp852
Rp853
(dp854
g6
Nsg7
I0
sg8
I1
sg9
Nsg35
(lp855
sbag0
(g1
g2
Ntp856
Rp857
(dp858
g6
F4.0
sg7
I3
sg8
I2
sg9
(lp859
g0
(g45
g2
Ntp860
Rp861
(dp862
g49
F100.0
sg35
(lp863
sg9
Nsg6
Nsg51
F102.5
sg7
I0
sg8
I0
sg52
I59
sg53
F92.0
sbag0
(g1
g2
Ntp864
Rp865
(dp866
g6
F2.0
sg7
I2
sg8
I2
sg9
(lp867
g0
(g1
g2
Ntp868
Rp869
(dp870
g6
Nsg7
I1
sg8
I2
sg9
(lp871
g0
(g31
g2
Ntp872
Rp873
(dp874
g6
Nsg7
I0
sg8
I1
sg9
Nsg35
(lp875
sbag0
(g45
g2
Ntp876
Rp877
(dp878
g49
F102.5
sg35
(lp879
sg9
Nsg6
Nsg51
F103.0
sg7
I0
sg8
I0
sg52
I60
sg53
F100.0
sbasg35
(F0.5
(F100.0
F102.5
F103.0
tp880
F0.5
tp881
sbag0
(g1
g2
Ntp882
Rp883
(dp884
g6
F1.0
sg7
I1
sg8
I2
sg9
(lp885
g0
(g45
g2
Ntp886
Rp887
(dp888
g49
F103.0
sg35
(lp889
sg9
Nsg6
Nsg51
F103.5
sg7
I0
sg8
I0
sg52
I61
sg53
F102.5
sbag0
(g45
g2
Ntp890
Rp891
(dp892
g49
F103.5
sg35
(lp893
sg9
Nsg6
Nsg51
F104.0
sg7
I0
sg8
I0
sg52
I62
sg53
F103.0
sbasg35
(F0.0
(F102.5
F103.0
F104.0
tp894
F1.0
tp895
sbasg35
(F0.25
(F100.0
F102.5
F104.0
tp896
F0.75
tp897
sbasg35
(F0.0
(F92.0
F100.0
F104.0
tp898
F1.0
tp899
sbasg35
(F0.5
(F92.0
F100.0
F104.0
tp900
F0.5
tp901
sbag0
(g1
g2
Ntp902
Rp903
(dp904
g6
F8.0
sg7
I4
sg8
I2
sg9
(lp905
g0
(g45
g2
Ntp906
Rp907
(dp908
g49
F104.0
sg35
(lp909
sg9
Nsg6
Nsg51
F109.0
sg7
I0
sg8
I0
sg52
I63
sg53
F103.5
sbag0
(g1
g2
Ntp910
Rp911
(dp912
g6
F4.0
sg7
I3
sg8
I2
sg9
(lp913
g0
(g1
g2
Ntp914
Rp915
(dp916
g6
F2.0
sg7
I2
sg8
I2
sg9
(lp917
g0
(g31
g2
Ntp918
Rp919
(dp920
g6
Nsg7
I0
sg8
I1
sg9
Nsg35
(lp921
sbag0
(g1
g2
Ntp922
Rp923
(dp924
g6
F1.0
sg7
I1
sg8
I2
sg9
(lp925
g0
(g45
g2
Ntp926
Rp927
(dp928
g49
F109.0
sg35
(lp929
sg9
Nsg6
Nsg51
F109.5
sg7
I0
sg8
I0
sg52
I65
sg53
F104.0
sbag0
(g45
g2
Ntp930
Rp931
(dp932
g49
F109.5
sg35
(lp933
sg9
Nsg6
Nsg51
F110.0
sg7
I0
sg8
I0
sg52
I66
sg53
F109.0
sbasg35
(F0.0
(F104.0
F109.0
F110.0
tp934
F1.0
tp935
sbasg35
(F0.5
(F104.0
F109.0
F110.0
tp936
F0.5
tp937
sbag0
(g1
g2
Ntp938
Rp939
(dp940
g6
F2.0
sg7
I2
sg8
I2
sg9
(lp941
g0
(g45
g2
Ntp942
Rp943
(dp944
g49
F110.0
sg35
(lp945
sg9
Nsg6
Nsg51
F111.0
sg7
I0
sg8
I0
sg52
I67
sg53
F109.5
sbag0
(g1
g2
Ntp946
Rp947
(dp948
g6
F1.0
sg7
I1
sg8
I2
sg9
(lp949
g0
(g45
g2
Ntp950
Rp951
(dp952
g49
F111.0
sg35
(lp953
sg9
Nsg6
Nsg51
F111.5
sg7
I0
sg8
I0
sg52
I68
sg53
F110.0
sbag0
(g45
g2
Ntp954
Rp955
(dp956
g49
F111.5
sg35
(lp957
sg9
Nsg6
Nsg51
F112.0
sg7
I0
sg8
I0
sg52
I69
sg53
F111.0
sbasg35
(F0.0
(F110.0
F111.0
F112.0
tp958
F1.0
tp959
sbasg35
(F0.0
(F109.5
F110.0
F112.0
tp960
F1.0
tp961
sbasg35
(F0.25
(F104.0
F109.0
F112.0
tp962
F0.75
tp963
sbasg35
(F0.0
(F103.5
F104.0
F112.0
tp964
F1.0
tp965
sbasg35
(F0.25
(F92.0
F100.0
F112.0
tp966
F0.75
tp967
sbag0
(g1
g2
Ntp968
Rp969
(dp970
g6
F16.0
sg7
I5
sg8
I2
sg9
(lp971
g0
(g1
g2
Ntp972
Rp973
(dp974
g6
F8.0
sg7
I4
sg8
I2
sg9
(lp975
g0
(g1
g2
Ntp976
Rp977
(dp978
g6
F4.0
sg7
I3
sg8
I2
sg9
(lp979
g0
(g45
g2
Ntp980
Rp981
(dp982
g49
F112.0
sg35
(lp983
sg9
Nsg6
Nsg51
F115.5
sg7
I0
sg8
I0
sg52
I70
sg53
F111.5
sbag0
(g1
g2
Ntp984
Rp985
(dp986
g6
Nsg7
I2
sg8
I2
sg9
(lp987
g0
(g31
g2
Ntp988
Rp989
(dp990
g6
Nsg7
I0
sg8
I1
sg9
Nsg35
(lp991
sbag0
(g1
g2
Ntp992
Rp993
(dp994
g6
Nsg7
I1
sg8
I2
sg9
(lp995
g0
(g31
g2
Ntp996
Rp997
(dp998
g6
Nsg7
I0
sg8
I1
sg9
Nsg35
(lp999
sbag0
(g45
g2
Ntp1000
Rp1001
(dp1002
g49
F115.5
sg35
(lp1003
sg9
Nsg6
Nsg51
F116.0
sg7
I0
sg8
I0
sg52
I71
sg53
F112.0
sbasg35
(F0.5
(F112.0
F115.5
F116.0
tp1004
F0.5
tp1005
sbasg35
(F0.75
(F112.0
F115.5
F116.0
tp1006
F0.25
tp1007
sbasg35
(F0.0
(F111.5
F112.0
F116.0
tp1008
F1.0
tp1009
sbag0
(g45
g2
Ntp1010
Rp1011
(dp1012
g49
F116.0
sg35
(lp1013
sg9
Nsg6
Nsg51
F122.5
sg7
I0
sg8
I0
sg52
I72
sg53
F115.5
sbasg35
(F0.0
(F111.5
F112.0
F122.5
tp1014
F1.0
tp1015
sbag0
(g1
g2
Ntp1016
Rp1017
(dp1018
g6
F8.0
sg7
I4
sg8
I2
sg9
(lp1019
g0
(g1
g2
Ntp1020
Rp1021
(dp1022
g6
F4.0
sg7
I3
sg8
I2
sg9
(lp1023
g0
(g31
g2
Ntp1024
Rp1025
(dp1026
g6
Nsg7
I0
sg8
I1
sg9
Nsg35
(lp1027
sbag0
(g1
g2
Ntp1028
Rp1029
(dp1030
g6
F2.0
sg7
I2
sg8
I2
sg9
(lp1031
g0
(g1
g2
Ntp1032
Rp1033
(dp1034
g6
Nsg7
I1
sg8
I2
sg9
(lp1035
g0
(g31
g2
Ntp1036
Rp1037
(dp1038
g6
Nsg7
I0
sg8
I1
sg9
Nsg35
(lp1039
sbag0
(g45
g2
Ntp1040
Rp1041
(dp1042
g49
F122.5
sg35
(lp1043
sg9
Nsg6
Nsg51
F123.0
sg7
I0
sg8
I0
sg52
I74
sg53
F116.0
sbasg35
(F0.5
(F116.0
F122.5
F123.0
tp1044
F0.5
tp1045
sbag0
(g1
g2
Ntp1046
Rp1047
(dp1048
g6
F1.0
sg7
I1
sg8
I2
sg9
(lp1049
g0
(g45
g2
Ntp1050
Rp1051
(dp1052
g49
F123.0
sg35
(lp1053
sg9
Nsg6
Nsg51
F123.5
sg7
I0
sg8
I0
sg52
I75
sg53
F122.5
sbag0
(g45
g2
Ntp1054
Rp1055
(dp1056
g49
F123.5
sg35
(lp1057
sg9
Nsg6
Nsg51
F124.0
sg7
I0
sg8
I0
sg52
I76
sg53
F123.0
sbasg35
(F0.0
(F122.5
F123.0
F124.0
tp1058
F1.0
tp1059
sbasg35
(F0.25
(F116.0
F122.5
F124.0
tp1060
F0.75
tp1061
sbasg35
(F0.625
(F116.0
F122.5
F124.0
tp1062
F0.375
tp1063
sbag0
(g45
g2
Ntp1064
Rp1065
(dp1066
g49
F124.0
sg35
(lp1067
sg9
Nsg6
Nsg51
F128.0
sg7
I0
sg8
I0
sg52
I77
sg53
F123.5
sbasg35
(F0.3125
(F116.0
F122.5
F128.0
tp1068
F0.6875
tp1069
sbasg35
(F0.0
(F111.5
F112.0
F128.0
tp1070
F1.0
tp1071
sbasg35
(F0.125
(F92.0
F100.0
F128.0
tp1072
F0.875
tp1073
sbasg35
(F0.046875
(F60.0
F67.0
F128.0
tp1074
F0.953125
tp1075
sbasg35
(F0.0234375
(I0
F3.0
F128.0
tp1076
F0.9765625
tp1077
sb.